(lp0
I626
aI520
aI534
aI569
aI732
aI733
aI181
aI153
aI589
aI46
aI577
aI445
aI450
aI156
aI708
aI597
aI245
aI448
aI154
aI34
aI294
aI756
aI21
aI739
aI294
aI375
aI589
aI494
aI501
aI555
aI569
aI128
aI198
aI147
aI759
aI236
aI414
aI529
aI517
aI378
aI593
aI237
aI78
aI415
aI643
aI581
aI485
aI89
aI35
aI780
aI356
aI226
aI341
aI254
aI116
aI115
aI224
aI424
aI62
aI465
aI230
aI221
aI405
aI688
aI42
aI54
aI161
aI253
aI179
aI231
aI649
aI133
aI43
aI629
aI767
aI309
aI371
aI582
aI21
aI221
aI378
aI365
aI590
aI125
aI106
aI444
aI76
aI403
aI697
aI205
aI620
aI401
aI628
aI243
aI418
aI185
aI156
aI418
aI389
aI191
aI446
aI468
aI421
aI639
aI619
aI439
aI259
aI560
aI748
aI296
aI565
aI749
aI512
aI762
aI297
aI72
aI365
aI556
aI779
aI158
aI499
aI240
aI533
aI416
aI234
aI203
aI457
aI239
aI675
aI630
aI572
aI249
aI473
aI269
aI188
aI595
aI761
aI501
aI202
aI490
aI315
aI325
aI244
aI709
aI59
aI82
aI609
aI59
aI104
aI322
aI15
aI763
aI753
aI289
aI635
aI396
aI111
aI307
aI251
aI338
aI625
aI734
aI317
aI648
aI105
aI697
aI794
aI301
aI626
aI62
aI660
aI632
aI631
aI158
aI105
aI390
aI29
aI93
aI735
aI282
aI465
aI144
aI17
aI12
aI579
aI667
aI309
aI324
aI111
aI182
aI353
aI180
aI385
aI415
aI125
aI644
aI591
aI403
aI687
aI675
aI545
aI371
aI228
aI547
aI638
aI470
aI397
aI792
aI560
aI370
aI253
aI375
aI313
aI264
aI605
aI646
aI782
aI341
aI705
aI232
aI550
aI305
aI389
aI98
aI85
aI713
aI768
aI427
aI571
aI84
aI327
aI256
aI111
aI553
aI48
aI37
aI570
aI638
aI565
aI687
aI455
aI134
aI52
aI244
aI158
aI414
aI460
aI655
aI590
aI675
aI460
aI129
aI700
aI234
aI421
aI478
aI670
aI557
aI658
aI566
aI669
aI547
aI652
aI622
aI476
aI429
aI267
aI103
aI14
aI438
aI412
aI561
aI576
aI527
aI326
aI794
aI410
aI413
aI421
aI585
aI78
aI629
aI544
aI655
aI542
aI290
aI432
aI767
aI280
aI509
aI184
aI420
aI229
aI656
aI426
aI63
aI767
aI580
aI754
aI501
aI611
aI447
aI675
aI110
aI553
aI341
aI264
aI658
aI769
aI692
aI420
aI243
aI42
aI468
aI60
aI357
aI51
aI220
aI247
aI207
aI549
aI65
aI594
aI637
aI670
aI187
aI204
aI630
aI249
aI745
aI193
aI596
aI399
aI211
aI470
aI460
aI203
aI40
aI351
aI80
aI156
aI634
aI325
aI617
aI461
aI514
aI222
aI169
aI467
aI88
aI314
aI697
aI426
aI72
aI468
aI640
aI343
aI741
aI753
aI605
aI85
aI273
aI461
aI647
aI249
aI408
aI483
aI516
aI16
aI516
aI262
aI105
aI489
aI731
aI709
aI662
aI718
aI408
aI322
aI154
aI416
aI721
aI359
aI679
aI561
aI30
aI753
aI344
aI308
aI655
aI192
aI383
aI328
aI687
aI441
aI483
aI210
aI65
aI273
aI47
aI311
aI90
aI307
aI135
aI555
aI267
aI271
aI463
aI192
aI712
aI475
aI37
aI222
aI759
aI98
aI575
aI346
aI118
aI517
aI614
aI495
aI306
aI174
aI639
aI554
aI48
aI120
aI740
aI539
aI336
aI543
aI560
aI379
aI250
aI189
aI191
aI634
aI578
aI563
aI352
aI284
aI136
aI309
aI383
aI240
aI639
aI301
aI134
aI765
aI278
aI221
aI695
aI392
aI64
aI407
aI442
aI621
aI314
aI165
aI797
aI757
aI400
aI254
aI672
aI771
aI479
aI213
aI631
aI191
aI524
aI270
aI476
aI792
aI792
aI777
aI584
aI287
aI710
aI588
aI647
aI381
aI262
aI535
aI454
aI686
aI479
aI610
aI658
aI522
aI42
aI572
aI684
aI29
aI323
aI71
aI82
aI728
aI131
aI580
aI589
aI604
aI563
aI564
aI162
aI438
aI526
aI670
aI322
aI159
aI652
aI588
aI495
aI395
aI579
aI53
aI386
aI289
aI494
aI656
aI74
aI261
aI758
aI17
aI641
aI187
aI163
aI180
aI716
aI136
aI310
aI751
aI474
aI450
aI707
aI645
aI71
aI766
aI314
aI535
aI795
aI233
aI568
aI553
aI371
aI71
aI455
aI225
aI422
aI163
aI252
aI576
aI652
aI684
aI667
aI39
aI789
aI679
aI599
aI346
aI219
aI33
aI222
aI328
aI718
aI61
aI247
aI426
aI535
aI790
aI488
aI214
aI272
aI422
aI510
aI451
aI716
aI524
aI97
aI291
aI419
aI128
aI393
aI12
aI97
aI63
aI123
aI147
aI229
aI748
aI196
aI603
aI501
aI763
aI301
aI415
aI460
aI67
aI131
aI307
aI425
aI35
aI93
aI467
aI98
aI547
aI243
aI124
aI93
aI218
aI310
aI681
aI163
aI436
aI338
aI168
aI650
aI191
aI571
aI197
aI32
aI69
aI653
aI128
aI705
aI371
aI79
aI359
aI15
aI167
aI202
aI46
aI100
aI266
aI75
aI225
aI713
aI184
aI261
aI154
aI203
aI498
aI445
aI606
aI44
aI659
aI413
aI454
aI364
aI748
aI136
aI673
aI776
aI222
aI58
aI438
aI69
aI259
aI472
aI248
aI496
aI422
aI32
aI123
aI328
aI100
aI635
aI68
aI330
aI270
aI226
aI763
aI697
aI538
aI526
aI687
aI712
aI539
aI245
aI178
aI613
aI465
aI610
aI587
aI690
aI111
aI114
aI251
aI766
aI477
aI452
aI475
aI181
aI83
aI296
aI323
aI735
aI254
aI166
aI123
aI17
aI512
aI379
aI477
aI450
aI735
aI23
aI379
aI348
aI454
aI218
aI367
aI272
aI2
aI796
aI233
aI12
aI493
aI761
aI475
aI123
aI312
aI538
aI342
aI622
aI689
aI799
aI521
aI519
aI369
aI84
aI85
aI13
aI447
aI800
aI565
aI745
aI479
aI199
aI353
aI431
aI402
aI269
aI122
aI384
aI152
aI30
aI100
aI707
aI608
aI625
aI396
aI432
aI298
aI325
aI617
aI334
aI235
aI187
aI379
aI655
aI756
aI154
aI159
aI200
aI662
aI748
aI654
aI246
aI516
aI9
aI789
aI562
aI302
aI496
aI637
aI207
aI631
aI546
aI646
aI118
aI145
aI221
aI54
aI769
aI118
aI746
aI351
aI699
aI355
aI635
aI253
aI278
aI214
aI653
aI543
aI744
aI126
aI765
aI142
aI236
aI35
aI145
aI241
aI349
aI489
aI568
aI343
aI474
aI45
aI742
aI460
aI788
aI300
aI380
aI26
aI762
aI644
aI266
aI667
aI612
aI504
aI123
aI353
aI428
aI772
aI153
aI731
aI427
aI387
aI738
aI214
aI676
aI688
aI538
aI649
aI660
aI593
aI29
aI685
aI275
aI476
aI243
aI456
aI29
aI136
aI231
aI457
aI12
aI560
aI525
aI263
aI252
aI693
aI203
aI713
aI763
aI741
aI519
aI397
aI319
aI335
aI694
aI52
aI500
aI387
aI524
aI328
aI629
aI683
aI675
aI467
aI58
aI733
aI381
aI362
aI189
aI454
aI218
aI40
aI110
aI313
aI82
aI406
aI229
aI747
aI733
aI299
aI687
aI330
aI496
aI536
aI365
aI525
aI406
aI500
aI131
aI440
aI252
aI786
aI360
aI374
aI407
aI670
aI42
aI181
aI118
aI90
aI502
aI317
aI216
aI199
aI306
aI105
aI276
aI670
aI364
aI349
aI215
aI412
aI66
aI255
aI725
aI770
aI619
aI373
aI439
aI167
aI467
aI530
aI542
aI158
aI252
aI697
aI157
aI474
aI761
aI140
aI148
aI74
aI624
aI66
aI242
aI213
aI82
aI138
aI552
aI66
aI425
aI676
aI781
aI429
aI432
aI336
aI159
aI767
aI42
aI456
aI166
aI188
aI59
aI798
aI529
aI42
aI481
aI225
aI488
aI773
aI208
aI276
aI515
aI424
aI104
aI481
aI797
aI682
aI549
aI531
aI278
aI396
aI36
aI771
aI795
aI285
aI548
aI154
aI356
aI265
aI50
aI165
aI705
aI455
aI366
aI40
aI631
aI249
aI256
aI179
aI98
aI193
aI389
aI758
aI142
aI751
aI686
aI85
aI659
aI646
aI731
aI680
aI491
aI324
aI256
aI90
aI723
aI303
aI357
aI317
aI363
aI366
aI235
aI748
aI645
aI79
aI692
aI747
aI760
aI605
aI436
aI747
aI692
aI665
aI695
aI575
aI352
aI189
aI506
aI181
aI471
aI682
aI101
aI358
aI666
aI462
aI505
aI532
aI763
aI201
aI342
aI360
aI525
aI473
aI249
aI724
aI96
aI613
aI275
aI719
aI766
aI746
aI122
aI623
aI743
aI529
aI278
aI193
aI684
aI666
aI499
aI572
aI84
aI198
aI204
aI43
aI420
aI405
aI179
aI582
aI389
aI159
aI209
aI11
aI241
aI415
aI359
aI504
aI157
aI713
aI731
aI753
aI227
aI98
aI703
aI733
aI117
aI501
aI654
aI220
aI44
aI770
aI655
aI230
aI202
aI28
aI620
aI747
aI454
aI87
aI785
aI631
aI786
aI702
aI525
aI11
aI732
aI223
aI773
aI749
aI266
aI646
aI488
aI767
aI630
aI646
aI344
aI737
aI94
aI177
aI527
aI259
aI163
aI597
aI334
aI722
aI254
aI559
aI365
aI729
aI618
aI295
aI24
aI181
aI681
aI289
aI519
aI628
aI191
aI737
aI67
aI140
aI97
aI209
aI424
aI600
aI358
aI45
aI715
aI320
aI745
aI219
aI21
aI557
aI98
aI493
aI159
aI399
aI434
aI730
aI540
aI676
aI754
aI512
aI361
aI743
aI595
aI346
aI477
aI576
aI163
aI275
aI444
aI212
aI655
aI376
aI230
aI157
aI525
aI223
aI3
aI708
aI31
aI572
aI35
aI682
aI700
aI598
aI539
aI691
aI563
aI368
aI216
aI196
aI390
aI737
aI379
aI585
aI476
aI718
aI682
aI728
aI774
aI316
aI791
aI225
aI281
aI167
aI783
aI363
aI113
aI576
aI451
aI657
aI590
aI187
aI149
aI388
aI653
aI562
aI223
aI544
aI797
aI796
aI575
aI128
aI581
aI615
aI215
aI519
aI112
aI492
aI308
aI695
aI459
aI281
aI139
aI475
aI503
aI615
aI40
aI316
aI724
aI3
aI283
aI615
aI221
aI79
aI15
aI711
aI503
aI446
aI767
aI99
aI482
aI387
aI106
aI633
aI124
aI14
aI176
aI528
aI738
aI563
aI97
aI205
aI777
aI68
aI715
aI50
aI661
aI543
aI230
aI5
aI497
aI635
aI591
aI760
aI251
aI642
aI747
aI201
aI270
aI96
aI631
aI192
aI592
aI318
aI552
aI455
aI337
aI654
aI513
aI275
aI12
aI219
aI240
aI358
aI391
aI114
aI345
aI252
aI189
aI245
aI788
aI103
aI310
aI126
aI780
aI575
aI402
aI220
aI260
aI136
aI309
aI385
aI538
aI133
aI317
aI532
aI783
aI328
aI75
aI89
aI553
aI546
aI413
aI338
aI380
aI652
aI249
aI211
aI502
aI701
aI743
aI338
aI89
aI409
aI410
aI505
aI266
aI2
aI431
aI356
aI178
aI425
aI432
aI481
aI438
aI457
aI421
aI559
aI363
aI218
aI34
aI745
aI531
aI460
aI557
aI223
aI755
aI403
aI320
aI574
aI6
aI261
aI227
aI525
aI39
aI784
aI577
aI330
aI723
aI187
aI387
aI378
aI429
aI257
aI740
aI765
aI337
aI508
aI170
aI626
aI731
aI254
aI621
aI233
aI343
aI27
aI797
aI314
aI724
aI320
aI731
aI301
aI295
aI338
aI94
aI798
aI789
aI6
aI24
aI277
aI220
aI449
aI640
aI158
aI759
aI652
aI400
aI255
aI175
aI198
aI201
aI282
aI427
aI783
aI225
aI332
aI76
aI101
aI605
aI754
aI446
aI570
aI185
aI754
aI101
aI415
aI504
aI561
aI561
aI242
aI511
aI328
aI134
aI721
aI168
aI263
aI361
aI284
aI439
aI640
aI330
aI380
aI198
aI193
aI682
aI706
aI284
aI749
aI699
aI226
aI355
aI130
aI19
aI553
aI655
aI790
aI468
aI122
aI14
aI698
aI151
aI129
aI777
aI52
aI240
aI630
aI388
aI157
aI77
aI491
aI39
aI707
aI666
aI86
aI347
aI49
aI15
aI346
aI31
aI353
aI515
aI521
aI669
aI134
aI8
aI472
aI188
aI271
aI742
aI239
aI161
aI481
aI357
aI58
aI311
aI20
aI385
aI752
aI26
aI185
aI476
aI12
aI608
aI280
aI530
aI584
aI498
aI326
aI277
aI476
aI495
aI507
aI333
aI208
aI188
aI655
aI116
aI307
aI483
aI410
aI6
aI793
aI259
aI32
aI705
aI782
aI779
aI581
aI544
aI370
aI725
aI339
aI467
aI296
aI16
aI345
aI298
aI422
aI263
aI560
aI616
aI411
aI256
aI726
aI53
aI431
aI370
aI247
aI17
aI382
aI451
aI267
aI125
aI614
aI775
aI62
aI356
aI651
aI306
aI736
aI507
aI326
aI734
aI544
aI43
aI679
aI447
aI729
aI408
aI194
aI161
aI504
aI366
aI631
aI344
aI320
aI554
aI238
aI83
aI501
aI368
aI417
aI214
aI689
aI397
aI373
aI366
aI53
aI593
aI360
aI206
aI330
aI521
aI717
aI193
aI422
aI712
aI427
aI325
aI327
aI469
aI720
aI499
aI496
aI56
aI442
aI552
aI150
aI295
aI32
aI705
aI678
aI693
aI82
aI651
aI103
aI40
aI613
aI74
aI482
aI51
aI163
aI531
aI47
aI53
aI323
aI241
aI422
aI394
aI24
aI247
aI376
aI586
aI283
aI792
aI589
aI556
aI162
aI533
aI406
aI52
aI357
aI735
aI400
aI311
aI120
aI577
aI516
aI27
aI96
aI418
aI358
aI248
aI272
aI125
aI466
aI109
aI640
aI738
aI47
aI436
aI289
aI757
aI319
aI556
aI233
aI495
aI369
aI427
aI737
aI624
aI693
aI236
aI370
aI40
aI493
aI672
aI24
aI35
aI19
aI166
aI624
aI586
aI266
aI431
aI99
aI349
aI679
aI254
aI163
aI695
aI374
aI632
aI765
aI20
aI559
aI687
aI288
aI158
aI75
aI159
aI37
aI340
aI519
aI788
aI239
aI448
aI653
aI41
aI109
aI53
aI186
aI496
aI493
aI721
aI452
aI237
aI295
aI459
aI316
aI107
aI314
aI430
aI127
aI405
aI441
aI43
aI558
aI671
aI225
aI359
aI585
aI251
aI656
aI554
aI312
aI417
aI242
aI358
aI293
aI753
aI226
aI441
aI756
aI681
aI478
aI203
aI774
aI763
aI336
aI685
aI373
aI251
aI416
aI186
aI688
aI322
aI168
aI61
aI36
aI192
aI292
aI428
aI475
aI340
aI657
aI524
aI681
aI632
aI637
aI255
aI19
aI763
aI166
aI275
aI77
aI181
aI800
aI779
aI665
aI339
aI399
aI472
aI242
aI519
aI506
aI230
aI293
aI330
aI226
aI429
aI37
aI518
aI537
aI308
aI228
aI335
aI152
aI470
aI45
aI118
aI264
aI515
aI260
aI302
aI478
aI124
aI715
aI690
aI553
aI636
aI77
aI621
aI380
aI459
aI17
aI221
aI642
aI9
aI437
aI758
aI267
aI79
aI776
aI313
aI605
aI305
aI614
aI566
aI644
aI776
aI104
aI474
aI312
aI441
aI781
aI708
aI67
aI237
aI479
aI484
aI550
aI686
aI582
aI589
aI149
aI613
aI207
aI131
aI332
aI530
aI127
aI390
aI68
aI219
aI515
aI187
aI682
aI88
aI292
aI172
aI56
aI529
aI439
aI72
aI392
aI292
aI291
aI427
aI73
aI304
aI677
aI528
aI15
aI659
aI483
aI221
aI470
aI641
aI618
aI194
aI453
aI675
aI26
aI776
aI50
aI134
aI6
aI763
aI520
aI491
aI753
aI610
aI398
aI215
aI578
aI646
aI305
aI75
aI34
aI568
aI721
aI241
aI474
aI75
aI17
aI511
aI257
aI8
aI196
aI419
aI484
aI788
aI164
aI280
aI162
aI193
aI495
aI365
aI720
aI425
aI169
aI588
aI762
aI390
aI357
aI365
aI723
aI543
aI331
aI513
aI447
aI297
aI458
aI271
aI439
aI129
aI592
aI667
aI323
aI610
aI747
aI122
aI475
aI319
aI41
aI773
aI59
aI408
aI681
aI355
aI477
aI587
aI775
aI323
aI111
aI399
aI300
aI341
aI29
aI601
aI669
aI245
aI213
aI2
aI35
aI508
aI401
aI428
aI164
aI343
aI203
aI154
aI776
aI120
aI118
aI76
aI454
aI595
aI793
aI617
aI264
aI356
aI598
aI783
aI83
aI297
aI740
aI57
aI61
aI603
aI153
aI294
aI217
aI233
aI505
aI495
aI709
aI429
aI775
aI32
aI178
aI798
aI594
aI51
aI377
aI524
aI147
aI633
aI587
aI109
aI69
aI282
aI286
aI746
aI319
aI154
aI566
aI417
aI63
aI41
aI537
aI56
aI247
aI756
aI234
aI772
aI721
aI627
aI2
aI421
aI636
aI127
aI197
aI375
aI202
aI551
aI641
aI647
aI353
aI496
aI52
aI261
aI11
aI261
aI209
aI312
aI382
aI440
aI322
aI394
aI290
aI545
aI633
aI129
aI421
aI138
aI123
aI702
aI76
aI783
aI259
aI495
aI300
aI63
aI366
aI404
aI679
aI580
aI28
aI1
aI627
aI716
aI14
aI109
aI152
aI529
aI9
aI124
aI489
aI344
aI612
aI42
aI514
aI753
aI568
aI477
aI704
aI208
aI699
aI18
aI187
aI306
aI152
aI607
aI793
aI799
aI580
aI58
aI799
aI694
aI191
aI61
aI33
aI741
aI705
aI235
aI246
aI631
aI719
aI688
aI167
aI466
aI181
aI50
aI435
aI582
aI747
aI32
aI371
aI464
aI14
aI788
aI240
aI341
aI112
aI400
aI641
aI574
aI206
aI582
aI555
aI355
aI551
aI444
aI404
aI423
aI308
aI615
aI462
aI215
aI170
aI342
aI87
aI501
aI70
aI393
aI475
aI749
aI252
aI181
aI263
aI69
aI514
aI332
aI333
aI179
aI135
aI607
aI708
aI731
aI272
aI411
aI481
aI356
aI621
aI285
aI587
aI32
aI11
aI91
aI139
aI59
aI244
aI766
aI364
aI402
aI671
aI266
aI17
aI196
aI704
aI57
aI15
aI186
aI513
aI591
aI1
aI138
aI83
aI392
aI281
aI62
aI131
aI551
aI5
aI52
aI706
aI341
aI104
aI428
aI791
aI767
aI508
aI696
aI126
aI388
aI68
aI552
aI686
aI706
aI95
aI39
aI502
aI374
aI577
aI519
aI631
aI741
aI742
aI180
aI328
aI112
aI48
aI85
aI267
aI241
aI63
aI241
aI318
aI198
aI494
aI221
aI57
aI445
aI450
aI589
aI274
aI437
aI719
aI459
aI790
aI490
aI526
aI258
aI391
aI282
aI193
aI19
aI19
aI365
aI625
aI451
aI579
aI355
aI645
aI489
aI530
aI280
aI740
aI32
aI312
aI461
aI166
aI164
aI558
aI609
aI144
aI314
aI475
aI627
aI644
aI637
aI160
aI404
aI156
aI428
aI585
aI237
aI213
aI512
aI21
aI519
aI31
aI9
aI772
aI498
aI364
aI380
aI546
aI289
aI682
aI290
aI325
aI681
aI36
aI629
aI394
aI132
aI364
aI557
aI167
aI116
aI192
aI686
aI311
aI596
aI305
aI156
aI697
aI280
aI447
aI576
aI607
aI274
aI359
aI496
aI50
aI447
aI181
aI212
aI45
aI91
aI506
aI16
aI699
aI440
aI72
aI277
aI496
aI372
aI796
aI561
aI635
aI679
aI594
aI178
aI249
aI776
aI384
aI635
aI295
aI460
aI346
aI12
aI157
aI263
aI238
aI406
aI629
aI272
aI445
aI731
aI29
aI418
aI38
aI53
aI175
aI702
aI245
aI662
aI635
aI237
aI571
aI325
aI2
aI175
aI338
aI204
aI89
aI216
aI314
aI432
aI42
aI493
aI11
aI729
aI404
aI156
aI727
aI771
aI136
aI280
aI38
aI455
aI151
aI553
aI517
aI795
aI33
aI691
aI12
aI286
aI800
aI551
aI47
aI585
aI543
aI534
aI753
aI790
aI58
aI152
aI316
aI507
aI470
aI3
aI87
aI648
aI344
aI787
aI792
aI417
aI481
aI23
aI166
aI221
aI160
aI721
aI520
aI540
aI530
aI80
aI132
aI771
aI486
aI425
aI778
aI283
aI5
aI666
aI529
aI706
aI556
aI416
aI475
aI341
aI330
aI282
aI649
aI717
aI484
aI602
aI414
aI571
aI545
aI93
aI15
aI21
aI558
aI628
aI604
aI244
aI387
aI432
aI652
aI249
aI404
aI3
aI188
aI34
aI196
aI250
aI438
aI667
aI183
aI620
aI162
aI150
aI236
aI624
aI787
aI232
aI638
aI519
aI88
aI559
aI335
aI152
aI522
aI102
aI35
aI455
aI119
aI637
aI233
aI14
aI724
aI799
a.