(lp0
I666
aI271
aI392
aI723
aI92
aI33
aI528
aI694
aI812
aI465
aI335
aI20
aI143
aI339
aI249
aI231
aI158
aI88
aI493
aI153
aI178
aI682
aI895
aI403
aI892
aI233
aI32
aI103
aI596
aI616
aI273
aI704
aI167
aI701
aI67
aI490
aI448
aI784
aI151
aI624
aI558
aI335
aI600
aI875
aI669
aI864
aI461
aI880
aI545
aI550
aI582
aI383
aI692
aI195
aI111
aI516
aI854
aI778
aI581
aI770
aI859
aI556
aI661
aI764
aI856
aI576
aI142
aI55
aI427
aI746
aI660
aI594
aI582
aI755
aI423
aI138
aI845
aI657
aI458
aI437
aI1
aI106
aI147
aI191
aI481
aI654
aI4
aI263
aI558
aI260
aI779
aI277
aI92
aI18
aI385
aI621
aI820
aI469
aI63
aI616
aI698
aI530
aI617
aI150
aI480
aI385
aI875
aI335
aI688
aI689
aI164
aI271
aI782
aI556
aI300
aI135
aI520
aI68
aI512
aI757
aI218
aI893
aI617
aI135
aI527
aI842
aI198
aI328
aI229
aI859
aI178
aI667
aI225
aI351
aI627
aI705
aI652
aI368
aI260
aI94
aI770
aI346
aI781
aI366
aI793
aI230
aI261
aI705
aI365
aI869
aI443
aI792
aI516
aI495
aI693
aI583
aI113
aI532
aI180
aI817
aI142
aI317
aI554
aI183
aI535
aI787
aI57
aI436
aI22
aI508
aI328
aI351
aI104
aI535
aI260
aI413
aI298
aI739
aI415
aI180
aI721
aI680
aI250
aI805
aI873
aI55
aI840
aI493
aI537
aI300
aI112
aI115
aI210
aI205
aI507
aI843
aI199
aI272
aI676
aI827
aI169
aI224
aI655
aI877
aI78
aI584
aI123
aI716
aI147
aI823
aI23
aI245
aI415
aI845
aI52
aI245
aI95
aI465
aI9
aI213
aI848
aI534
aI26
aI97
aI800
aI554
aI836
aI172
aI726
aI433
aI9
aI536
aI172
aI635
aI658
aI554
aI592
aI554
aI882
aI473
aI66
aI307
aI562
aI378
aI895
aI223
aI603
aI92
aI301
aI613
aI113
aI413
aI816
aI703
aI358
aI466
aI200
aI269
aI368
aI87
aI120
aI678
aI519
aI871
aI101
aI391
aI345
aI486
aI537
aI365
aI233
aI73
aI667
aI58
aI174
aI616
aI199
aI809
aI127
aI499
aI834
aI842
aI710
aI119
aI626
aI803
aI436
aI772
aI371
aI717
aI75
aI900
aI611
aI715
aI703
aI124
aI276
aI729
aI685
aI281
aI488
aI344
aI548
aI258
aI343
aI66
aI124
aI367
aI176
aI114
aI433
aI174
aI426
aI89
aI514
aI422
aI565
aI164
aI655
aI229
aI749
aI840
aI386
aI711
aI137
aI346
aI595
aI351
aI356
aI282
aI55
aI24
aI425
aI392
aI551
aI848
aI65
aI219
aI728
aI583
aI759
aI761
aI593
aI213
aI811
aI569
aI420
aI740
aI709
aI821
aI508
aI332
aI515
aI749
aI604
aI697
aI812
aI53
aI47
aI268
aI86
aI469
aI476
aI805
aI775
aI865
aI718
aI80
aI869
aI692
aI461
aI652
aI256
aI483
aI509
aI333
aI784
aI745
aI563
aI591
aI648
aI373
aI744
aI808
aI187
aI763
aI766
aI236
aI198
aI206
aI455
aI557
aI300
aI735
aI669
aI529
aI390
aI128
aI426
aI217
aI604
aI323
aI383
aI837
aI210
aI819
aI477
aI619
aI513
aI360
aI221
aI407
aI675
aI443
aI252
aI303
aI567
aI698
aI884
aI436
aI97
aI253
aI797
aI148
aI766
aI76
aI798
aI300
aI554
aI549
aI722
aI480
aI892
aI109
aI454
aI306
aI781
aI212
aI413
aI331
aI593
aI684
aI208
aI761
aI401
aI664
aI817
aI575
aI607
aI68
aI885
aI297
aI395
aI523
aI871
aI487
aI128
aI899
aI845
aI728
aI769
aI41
aI682
aI491
aI434
aI707
aI47
aI600
aI100
aI780
aI267
aI282
aI616
aI802
aI162
aI154
aI59
aI607
aI318
aI834
aI629
aI661
aI536
aI812
aI12
aI223
aI607
aI752
aI462
aI19
aI586
aI89
aI820
aI267
aI571
aI851
aI36
aI757
aI70
aI420
aI577
aI895
aI386
aI509
aI381
aI743
aI816
aI368
aI324
aI830
aI336
aI210
aI857
aI65
aI48
aI548
aI414
aI528
aI843
aI781
aI454
aI605
aI694
aI474
aI11
aI218
aI820
aI697
aI71
aI546
aI830
aI260
aI124
aI562
aI864
aI700
aI102
aI783
aI290
aI845
aI554
aI559
aI691
aI373
aI853
aI256
aI417
aI635
aI625
aI232
aI7
aI173
aI875
aI869
aI164
aI706
aI321
aI52
aI232
aI593
aI462
aI754
aI778
aI379
aI373
aI48
aI213
aI226
aI209
aI627
aI216
aI257
aI454
aI65
aI888
aI261
aI50
aI890
aI470
aI255
aI88
aI840
aI98
aI824
aI427
aI754
aI380
aI380
aI33
aI883
aI693
aI77
aI584
aI485
aI884
aI332
aI810
aI879
aI672
aI825
aI819
aI543
aI740
aI259
aI383
aI574
aI773
aI877
aI462
aI680
aI852
aI735
aI676
aI326
aI218
aI357
aI23
aI505
aI220
aI470
aI178
aI730
aI344
aI347
aI266
aI492
aI162
aI631
aI57
aI533
aI446
aI112
aI359
aI37
aI626
aI377
aI25
aI643
aI820
aI210
aI268
aI535
aI621
aI824
aI572
aI10
aI865
aI169
aI441
aI44
aI591
aI46
aI477
aI502
aI30
aI385
aI8
aI403
aI538
aI839
aI649
aI365
aI643
aI576
aI750
aI119
aI312
aI405
aI233
aI850
aI664
aI720
aI460
aI441
aI894
aI562
aI810
aI751
aI712
aI222
aI134
aI665
aI817
aI301
aI854
aI518
aI687
aI18
aI305
aI558
aI394
aI186
aI127
aI100
aI160
aI693
aI356
aI326
aI488
aI533
aI256
aI132
aI850
aI8
aI105
aI398
aI552
aI151
aI768
aI479
aI46
aI63
aI629
aI117
aI380
aI499
aI414
aI339
aI405
aI8
aI663
aI55
aI223
aI72
aI241
aI506
aI305
aI188
aI406
aI301
aI502
aI212
aI140
aI864
aI331
aI645
aI674
aI473
aI590
aI499
aI401
aI736
aI493
aI274
aI799
aI242
aI43
aI560
aI652
aI450
aI349
aI172
aI585
aI524
aI623
aI629
aI881
aI632
aI376
aI253
aI83
aI397
aI213
aI182
aI894
aI877
aI295
aI231
aI462
aI6
aI246
aI356
aI282
aI382
aI725
aI504
aI64
aI279
aI687
aI838
aI240
aI802
aI231
aI73
aI838
aI769
aI214
aI869
aI73
aI507
aI631
aI331
aI443
aI173
aI399
aI497
aI370
aI180
aI671
aI589
aI665
aI860
aI78
aI773
aI218
aI772
aI712
aI628
aI134
aI337
aI387
aI215
aI818
aI507
aI94
aI24
aI13
aI740
aI456
aI380
aI701
aI282
aI253
aI743
aI705
aI610
aI709
aI767
aI433
aI535
aI394
aI310
aI106
aI596
aI621
aI8
aI887
aI521
aI134
aI337
aI563
aI337
aI689
aI5
aI663
aI690
aI174
aI419
aI595
aI214
aI93
aI849
aI626
aI708
aI78
aI305
aI507
aI515
aI317
aI40
aI888
aI352
aI256
aI671
aI795
aI805
aI639
aI501
aI51
aI612
aI604
aI31
aI462
aI372
aI851
aI834
aI153
aI337
aI286
aI808
aI749
aI56
aI313
aI139
aI513
aI342
aI589
aI163
aI820
aI360
aI145
aI738
aI732
aI379
aI372
aI403
aI392
aI802
aI449
aI865
aI514
aI450
aI468
aI433
aI859
aI125
aI413
aI423
aI202
aI820
aI180
aI56
aI785
aI799
aI849
aI372
aI311
aI256
aI363
aI71
aI564
aI886
aI730
aI610
aI639
aI222
aI355
aI91
aI33
aI846
aI133
aI757
aI175
aI891
aI447
aI503
aI861
aI59
aI233
aI55
aI268
aI443
aI757
aI762
aI399
aI707
aI769
aI237
aI147
aI718
aI257
aI549
aI631
aI596
aI709
aI325
aI663
aI659
aI380
aI410
aI195
aI273
aI556
aI199
aI490
aI342
aI679
aI652
aI596
aI21
aI152
aI823
aI895
aI263
aI443
aI714
aI751
aI787
aI218
aI84
aI196
aI532
aI199
aI302
aI322
aI735
aI172
aI567
aI1
aI664
aI87
aI605
aI301
aI421
aI485
aI236
aI12
aI181
aI252
aI362
aI340
aI664
aI449
aI98
aI27
aI80
aI628
aI443
aI897
aI840
aI151
aI382
aI114
aI351
aI449
aI122
aI697
aI695
aI609
aI811
aI313
aI210
aI88
aI675
aI894
aI147
aI507
aI455
aI716
aI80
aI277
aI113
aI808
aI11
aI432
aI448
aI81
aI91
aI94
aI253
aI776
aI84
aI164
aI533
aI794
aI682
aI860
aI827
aI506
aI544
aI298
aI492
aI359
aI712
aI666
aI839
aI448
aI406
aI664
aI276
aI229
aI192
aI812
aI242
aI318
aI892
aI767
aI737
aI811
aI651
aI604
aI791
aI115
aI37
aI227
aI850
aI771
aI526
aI256
aI858
aI344
aI671
aI271
aI185
aI660
aI270
aI157
aI115
aI484
aI893
aI371
aI696
aI182
aI862
aI337
aI609
aI661
aI90
aI51
aI649
aI157
aI28
aI292
aI657
aI93
aI889
aI875
aI501
aI380
aI800
aI213
aI167
aI751
aI531
aI775
aI574
aI196
aI648
aI159
aI571
aI479
aI454
aI293
aI129
aI409
aI93
aI223
aI171
aI652
aI198
aI841
aI138
aI480
aI118
aI747
aI69
aI687
aI446
aI236
aI257
aI323
aI346
aI885
aI451
aI231
aI224
aI288
aI656
aI378
aI442
aI829
aI599
aI6
aI668
aI474
aI760
aI232
aI781
aI806
aI588
aI723
aI634
aI801
aI658
aI646
aI131
aI162
aI322
aI69
aI795
aI580
aI320
aI173
aI21
aI478
aI349
aI812
aI139
aI490
aI488
aI2
aI384
aI534
aI366
aI743
aI90
aI511
aI144
aI601
aI205
aI85
aI616
aI643
aI682
aI855
aI843
aI391
aI268
aI870
aI308
aI460
aI512
aI48
aI177
aI899
aI763
aI316
aI181
aI75
aI311
aI609
aI149
aI181
aI186
aI337
aI731
aI760
aI814
aI545
aI832
aI125
aI161
aI849
aI452
aI38
aI55
aI572
aI380
aI447
aI20
aI50
aI472
aI103
aI739
aI299
aI103
aI598
aI683
aI664
aI757
aI417
aI351
aI871
aI627
aI424
aI595
aI84
aI47
aI642
aI541
aI126
aI405
aI336
aI99
aI633
aI666
aI489
aI549
aI117
aI498
aI227
aI409
aI488
aI791
aI1
aI195
aI140
aI742
aI143
aI796
aI607
aI894
aI848
aI844
aI106
aI357
aI604
aI315
aI769
aI24
aI446
aI120
aI699
aI31
aI393
aI666
aI476
aI542
aI136
aI852
aI265
aI45
aI451
aI196
aI137
aI19
aI279
aI222
aI662
aI252
aI693
aI605
aI493
aI744
aI342
aI178
aI212
aI436
aI294
aI692
aI470
aI900
aI145
aI38
aI466
aI489
aI500
aI857
aI539
aI766
aI884
aI481
aI234
aI693
aI354
aI629
aI45
aI555
aI803
aI554
aI92
aI16
aI720
aI11
aI855
aI379
aI803
aI455
aI129
aI398
aI672
aI795
aI327
aI578
aI230
aI548
aI759
aI394
aI850
aI464
aI858
aI447
aI16
aI424
aI900
aI250
aI379
aI405
aI375
aI141
aI347
aI326
aI782
aI660
aI169
aI146
aI161
aI244
aI822
aI568
aI271
aI153
aI116
aI789
aI648
aI617
aI796
aI35
aI84
aI28
aI790
aI106
aI52
aI786
aI94
aI175
aI563
aI650
aI427
aI333
aI384
aI263
aI327
aI386
aI410
aI521
aI445
aI649
aI260
aI98
aI742
aI488
aI704
aI815
aI889
aI423
aI307
aI583
aI874
aI775
aI689
aI386
aI748
aI66
aI732
aI702
aI242
aI805
aI742
aI137
aI522
aI681
aI742
aI370
aI481
aI564
aI596
aI361
aI345
aI787
aI42
aI636
aI757
aI299
aI372
aI722
aI504
aI559
aI418
aI433
aI479
aI414
aI217
aI219
aI561
aI55
aI736
aI837
aI634
aI701
aI574
aI118
aI30
aI786
aI47
aI475
aI73
aI761
aI228
aI379
aI686
aI591
aI195
aI879
aI372
aI412
aI197
aI512
aI474
aI878
aI292
aI169
aI824
aI516
aI327
aI669
aI561
aI255
aI232
aI589
aI882
aI187
aI132
aI630
aI767
aI563
aI749
aI425
aI9
aI511
aI790
aI796
aI479
aI115
aI399
aI202
aI195
aI755
aI434
aI527
aI758
aI875
aI648
aI204
aI34
aI57
aI408
aI803
aI705
aI585
aI576
aI335
aI156
aI784
aI38
aI741
aI475
aI763
aI86
aI724
aI572
aI797
aI282
aI241
aI210
aI747
aI23
aI894
aI16
aI664
aI692
aI108
aI821
aI468
aI377
aI313
aI67
aI5
aI772
aI849
aI428
aI186
aI405
aI523
aI742
aI184
aI555
aI620
aI800
aI872
aI498
aI300
aI630
aI893
aI712
aI70
aI27
aI302
aI286
aI96
aI644
aI565
aI476
aI829
aI687
aI418
aI211
aI605
aI135
aI807
aI87
aI299
aI802
aI38
aI574
aI300
aI143
aI240
aI746
aI105
aI2
aI92
aI237
aI217
aI678
aI510
aI25
aI403
aI308
aI894
aI691
aI448
aI54
aI787
aI449
aI105
aI712
aI721
aI708
aI241
aI462
aI443
aI56
aI250
aI332
aI373
aI133
aI257
aI452
aI471
aI836
aI217
aI47
aI458
aI321
aI335
aI504
aI687
aI219
aI688
aI146
aI657
aI192
aI508
aI533
aI367
aI881
aI256
aI225
aI162
aI422
aI584
aI772
aI109
aI284
aI646
aI790
aI96
aI99
aI742
aI137
aI54
aI513
aI528
aI57
aI143
aI247
aI489
aI576
aI635
aI25
aI379
aI20
aI228
aI63
aI299
aI239
aI67
aI136
aI815
aI310
aI804
aI826
aI102
aI895
aI30
aI267
aI700
aI790
aI505
aI160
aI565
aI703
aI262
aI717
aI72
aI576
aI849
aI654
aI625
aI391
aI837
aI881
aI640
aI31
aI351
aI138
aI728
aI753
aI522
aI388
aI807
aI198
aI680
aI892
aI350
aI665
aI211
aI3
aI851
aI849
aI601
aI324
aI2
aI42
aI546
aI844
aI129
aI517
aI824
aI501
aI194
aI537
aI385
aI339
aI483
aI552
aI294
aI549
aI845
aI218
aI241
aI280
aI748
aI875
aI359
aI819
aI765
aI134
aI887
aI696
aI437
aI444
aI387
aI449
aI455
aI711
aI64
aI318
aI62
aI550
aI589
aI431
aI862
aI354
aI680
aI585
aI582
aI393
aI608
aI307
aI626
aI802
aI786
aI719
aI51
aI334
aI833
aI410
aI435
aI287
aI317
aI520
aI481
aI72
aI783
aI124
aI534
aI456
aI438
aI246
aI727
aI367
aI192
aI840
aI417
aI278
aI371
aI697
aI168
aI212
aI572
aI137
aI798
aI366
aI639
aI669
aI281
aI157
aI252
aI795
aI822
aI631
aI338
aI472
aI246
aI667
aI257
aI886
aI660
aI469
aI234
aI260
aI719
aI593
aI235
aI537
aI115
aI518
aI443
aI614
aI363
aI259
aI214
aI801
aI485
aI302
aI837
aI733
aI274
aI623
aI582
aI502
aI709
aI50
aI85
aI659
aI724
aI784
aI529
aI800
aI597
aI136
aI399
aI648
aI30
aI262
aI53
aI813
aI490
aI599
aI94
aI84
aI261
aI557
aI196
aI76
aI33
aI400
aI113
aI349
aI110
aI154
aI884
aI511
aI466
aI849
aI424
aI862
aI538
aI382
aI895
aI265
aI295
aI53
aI501
aI367
aI194
aI117
aI106
aI531
aI674
aI181
aI656
aI698
aI628
aI520
aI283
aI93
aI805
aI24
aI119
aI171
aI125
aI648
aI871
aI413
aI738
aI718
aI216
aI223
aI343
aI609
aI452
aI829
aI140
aI627
aI95
aI392
aI38
aI254
aI286
aI160
aI358
aI776
aI184
aI53
aI564
aI789
aI819
aI293
aI667
aI523
aI330
aI389
aI777
aI96
aI288
aI777
aI48
aI105
aI885
aI710
aI385
aI108
aI885
aI741
aI50
aI714
aI201
aI900
aI197
aI628
aI882
aI627
aI496
aI867
aI744
aI174
aI603
aI447
aI887
aI222
aI467
aI58
aI249
aI624
aI535
aI349
aI423
aI758
aI563
aI53
aI743
aI390
aI793
aI479
aI817
aI311
aI497
aI152
aI160
aI15
aI532
aI341
aI278
aI388
aI366
aI6
aI463
aI455
aI409
aI296
aI177
aI52
aI705
aI514
aI857
aI303
aI74
aI334
aI509
aI403
aI335
aI732
aI710
aI463
aI98
aI627
aI636
aI420
aI143
aI435
aI784
aI115
aI461
aI162
aI595
aI847
aI3
aI472
aI198
aI472
aI57
aI45
aI47
aI820
aI348
aI486
aI752
aI508
aI314
aI473
aI891
aI833
aI700
aI621
aI80
aI615
aI585
aI513
aI65
aI765
aI762
aI57
aI578
aI372
aI241
aI261
aI673
aI380
aI540
aI656
aI776
aI656
aI371
aI790
aI752
aI392
aI870
aI878
aI832
aI103
aI406
aI253
aI471
aI845
aI842
aI345
aI728
aI499
aI620
aI580
aI575
aI216
aI495
aI395
aI90
aI632
aI468
aI134
aI716
aI620
aI300
aI490
aI444
aI16
aI561
aI618
aI610
aI582
aI436
aI892
aI482
aI77
aI626
aI649
aI78
aI405
aI327
aI642
aI481
aI372
aI82
aI394
aI242
aI395
aI211
aI382
aI322
aI886
aI544
aI585
aI285
aI579
aI233
aI702
aI16
aI492
aI35
a.