(lp0
I270
aI457
aI560
aI89
aI440
aI497
aI467
aI527
aI695
aI618
aI761
aI545
aI487
aI474
aI87
aI7
aI785
aI334
aI603
aI759
aI376
aI154
aI684
aI106
aI76
aI628
aI245
aI873
aI440
aI70
aI896
aI792
aI274
aI489
aI832
aI482
aI87
aI331
aI816
aI823
aI373
aI849
aI543
aI621
aI135
aI877
aI32
aI131
aI811
aI133
aI460
aI478
aI493
aI1
aI351
aI845
aI775
aI685
aI474
aI426
aI399
aI422
aI641
aI87
aI64
aI846
aI674
aI232
aI698
aI36
aI515
aI704
aI80
aI587
aI122
aI230
aI451
aI94
aI212
aI337
aI46
aI561
aI210
aI680
aI508
aI302
aI576
aI526
aI458
aI704
aI388
aI512
aI580
aI810
aI22
aI570
aI260
aI103
aI529
aI220
aI272
aI10
aI95
aI891
aI563
aI577
aI626
aI11
aI330
aI674
aI11
aI644
aI895
aI650
aI6
aI16
aI351
aI97
aI292
aI349
aI133
aI724
aI432
aI77
aI723
aI547
aI239
aI872
aI427
aI732
aI649
aI158
aI79
aI110
aI512
aI103
aI315
aI421
aI614
aI57
aI256
aI734
aI392
aI184
aI674
aI52
aI108
aI333
aI268
aI154
aI212
aI217
aI38
aI541
aI210
aI566
aI582
aI459
aI21
aI771
aI29
aI1
aI6
aI360
aI620
aI866
aI17
aI810
aI727
aI898
aI207
aI49
aI420
aI839
aI419
aI774
aI303
aI401
aI24
aI265
aI429
aI414
aI560
aI126
aI9
aI7
aI303
aI759
aI831
aI64
aI779
aI131
aI31
aI298
aI647
aI184
aI60
aI788
aI675
aI451
aI668
aI16
aI2
aI275
aI837
aI589
aI110
aI458
aI831
aI137
aI682
aI482
aI843
aI341
aI729
aI460
aI117
aI592
aI710
aI560
aI611
aI365
aI192
aI648
aI192
aI399
aI496
aI376
aI556
aI752
aI558
aI52
aI720
aI598
aI310
aI820
aI664
aI186
aI596
aI173
aI227
aI420
aI144
aI891
aI413
aI458
aI266
aI414
aI184
aI771
a.