(lp0
I433
aI460
aI426
aI441
aI430
aI439
aI447
aI431
aI440
aI430
aI453
aI453
aI462
aI447
aI444
aI419
aI463
aI420
aI419
aI439
aI448
aI429
aI447
aI469
aI445
aI422
aI414
aI456
aI423
aI427
aI438
aI436
aI454
aI448
aI447
aI443
aI443
aI457
aI423
aI414
aI443
aI419
aI463
aI430
aI427
aI448
aI455
aI430
aI423
aI467
aI443
aI427
aI421
aI428
aI429
aI434
aI449
aI425
aI467
aI437
aI434
aI418
aI444
aI460
aI438
aI425
aI467
aI426
aI441
aI465
aI454
aI432
aI442
aI429
aI439
aI424
aI435
aI450
aI469
aI441
aI419
aI438
aI448
aI431
aI442
aI430
aI429
aI432
aI456
aI437
aI452
aI436
aI442
aI419
aI447
aI399
aI429
aI421
aI456
aI443
aI422
aI414
aI452
aI443
aI451
aI438
aI430
aI434
aI431
aI447
aI459
aI444
aI424
aI434
aI431
aI445
aI466
aI455
aI467
aI426
aI432
aI432
aI453
aI452
aI441
aI446
aI442
aI421
aI425
aI436
aI431
aI406
aI451
aI444
aI451
aI450
aI426
aI436
aI449
aI424
aI423
aI457
aI464
aI436
aI425
aI451
aI437
aI452
aI431
aI451
aI431
aI447
aI451
aI430
aI415
aI463
aI422
aI443
aI447
aI415
aI441
aI426
aI425
aI461
aI450
aI448
aI439
aI458
aI405
aI470
aI421
aI441
aI426
aI447
aI426
aI439
aI438
aI451
aI413
aI434
aI452
aI426
aI458
aI454
aI463
aI445
aI434
aI465
aI472
aI422
aI419
aI419
aI420
aI428
aI409
aI448
aI437
aI437
aI429
aI422
aI439
aI436
aI431
aI440
aI451
aI450
aI424
aI442
aI463
aI421
aI431
aI444
aI434
aI431
aI428
aI433
aI416
aI445
aI432
aI466
aI441
aI426
aI441
aI410
aI454
aI443
aI424
aI431
aI421
aI457
aI433
aI446
aI431
aI439
aI441
aI420
aI453
aI442
aI442
aI418
aI428
aI422
aI442
aI454
aI457
aI438
aI458
aI451
aI417
aI470
aI446
aI449
aI429
aI436
aI439
aI450
aI449
aI456
aI445
aI440
aI418
aI431
aI413
aI418
aI441
aI435
aI431
aI401
aI442
aI443
aI461
aI451
aI404
aI440
aI423
aI415
aI443
aI439
aI438
aI457
aI434
aI471
aI408
aI442
aI428
aI450
aI429
aI453
aI445
aI436
aI447
aI462
aI458
aI429
aI411
aI435
aI446
aI430
aI460
aI444
aI466
aI452
aI459
aI465
aI434
aI433
aI433
aI425
aI440
aI440
aI449
aI419
aI428
aI420
aI441
aI444
aI436
aI446
aI431
aI427
aI433
aI449
aI439
aI436
aI411
aI441
aI455
aI452
aI455
aI432
aI433
aI422
aI460
aI463
aI470
aI439
aI424
aI450
aI440
aI447
aI437
aI450
aI426
aI443
aI461
aI456
aI439
aI460
aI437
aI465
aI446
aI439
aI432
aI448
aI431
aI465
aI428
aI444
aI449
aI461
aI448
aI460
aI446
aI431
aI431
aI461
aI412
aI454
aI418
aI429
aI459
aI455
aI461
aI407
aI438
aI463
aI432
aI447
aI422
aI444
aI468
aI452
aI408
aI434
aI442
aI446
aI450
aI446
aI453
aI425
aI423
aI457
aI425
aI428
aI423
aI427
aI437
aI425
aI419
aI476
aI438
aI460
aI450
aI409
aI435
aI453
aI439
aI445
aI414
aI424
aI436
aI456
aI473
aI427
aI415
aI455
aI436
aI446
aI434
aI464
aI422
aI431
aI426
aI438
aI458
aI449
aI485
aI430
aI433
aI462
aI449
aI429
aI473
aI421
aI432
aI439
aI467
aI425
aI458
aI435
aI446
aI459
aI453
aI454
aI438
aI454
aI455
aI448
aI438
aI455
aI447
aI438
aI425
aI451
aI414
aI418
aI429
aI475
aI451
aI448
aI455
aI413
aI450
aI441
aI405
aI447
aI485
aI451
aI420
aI443
aI421
aI456
aI437
aI438
aI448
aI431
aI432
aI439
aI478
aI450
aI450
aI429
aI425
aI459
aI473
aI443
aI452
aI419
aI443
aI455
aI423
aI446
aI464
aI448
aI428
aI429
aI421
aI448
aI461
aI451
aI420
aI453
aI446
aI421
aI419
aI471
aI449
aI482
aI426
aI471
aI443
aI415
aI419
aI453
aI429
aI426
aI437
aI443
aI457
aI434
aI447
aI444
aI453
aI423
aI451
aI468
aI438
aI436
aI421
aI435
aI415
aI457
aI456
aI439
aI441
aI448
aI466
aI453
aI447
aI437
aI468
aI444
aI419
aI447
aI462
aI432
aI449
aI432
aI437
aI416
aI438
aI418
aI462
aI431
aI422
aI433
aI420
aI427
aI437
aI441
aI433
aI436
aI442
aI429
aI451
aI456
aI424
aI441
aI423
aI457
aI459
aI442
aI451
aI428
aI449
aI414
aI406
aI411
aI449
aI429
aI453
aI442
aI424
aI411
aI448
aI469
aI447
aI439
aI452
aI432
aI446
aI441
aI437
aI456
aI448
aI439
aI446
aI425
aI430
aI429
aI443
aI447
aI465
aI438
aI425
aI414
aI436
aI444
aI423
aI457
aI459
aI436
aI424
aI446
aI454
aI459
aI433
aI411
aI483
aI417
aI439
aI420
aI445
aI446
aI451
aI399
aI442
aI443
aI429
aI442
aI419
aI454
aI417
aI458
aI449
aI453
aI425
aI473
aI444
aI433
aI464
aI441
aI434
aI435
aI454
aI433
aI444
aI417
aI422
aI445
aI442
aI459
aI431
aI425
aI465
aI416
aI432
aI424
aI456
aI432
aI472
aI436
aI444
aI438
aI452
aI431
aI414
aI418
aI438
aI430
aI429
aI431
aI427
aI429
aI439
aI435
aI436
aI422
aI449
aI411
aI460
aI451
aI437
aI432
aI463
aI442
aI440
aI424
aI440
aI444
aI430
aI421
aI458
aI449
aI463
aI439
aI460
aI436
aI440
aI406
aI427
aI433
aI446
aI444
aI447
aI418
aI428
aI438
aI449
aI420
aI420
aI448
aI444
aI457
aI410
aI415
aI427
aI447
aI417
aI423
aI422
aI461
aI459
aI439
aI434
aI426
aI451
aI428
aI423
aI457
aI453
aI451
aI479
aI444
aI461
aI423
aI417
aI475
aI450
aI442
aI459
aI464
aI436
aI420
aI449
aI439
aI401
aI417
aI451
aI426
aI418
aI420
aI442
aI433
aI458
aI452
aI444
aI416
aI458
aI429
aI431
aI415
aI427
aI452
aI434
aI442
aI425
aI443
aI424
aI445
aI453
aI458
aI473
aI434
aI428
aI435
aI435
aI422
aI412
aI408
aI432
aI459
aI416
aI460
aI415
aI429
aI445
aI437
aI466
aI430
aI445
aI473
aI436
aI427
aI470
aI442
aI401
aI468
aI463
aI438
aI442
aI462
aI442
aI435
aI465
aI434
aI442
aI454
aI440
aI429
aI453
aI472
aI423
aI436
aI463
aI414
aI472
aI447
aI427
aI411
aI441
aI448
aI445
aI431
aI436
aI450
aI462
aI445
aI423
aI438
aI431
aI434
aI436
aI436
aI414
aI432
aI424
aI453
aI454
aI440
aI450
aI438
aI434
aI463
aI442
aI428
aI480
aI444
aI418
aI470
aI444
aI430
aI427
aI459
aI448
aI451
aI440
aI443
aI459
aI435
aI458
aI444
aI419
aI445
aI431
aI423
aI431
aI427
aI420
aI474
aI446
aI456
aI465
aI472
aI470
aI449
aI473
aI442
aI439
aI436
aI432
aI415
aI434
aI446
aI426
aI478
aI461
aI439
aI459
aI413
aI426
aI448
aI452
aI429
aI445
aI444
aI462
aI432
aI442
aI452
aI417
aI456
aI455
aI463
aI443
aI457
aI440
aI450
aI446
aI426
aI421
aI447
aI433
aI418
aI444
aI419
aI453
aI452
aI457
aI407
aI434
aI425
aI430
aI455
aI430
aI455
aI442
aI467
aI421
aI425
aI427
aI421
aI427
aI426
aI457
aI409
aI395
aI396
aI437
aI431
aI444
aI434
aI458
aI457
aI451
aI451
aI435
aI420
aI446
aI417
aI467
aI470
aI423
aI418
aI459
aI437
aI415
aI413
aI440
aI428
aI425
aI453
aI412
aI404
aI433
aI437
aI444
aI430
aI431
aI459
aI443
aI431
aI445
aI436
aI410
aI442
aI425
aI453
aI438
aI455
aI445
aI439
aI406
aI416
aI426
aI424
aI445
aI453
aI419
aI438
aI468
aI447
aI438
aI444
aI447
aI449
aI424
aI432
aI439
aI463
aI435
aI450
aI421
aI427
aI427
aI428
aI424
aI427
aI411
aI443
aI431
aI414
aI453
aI449
aI402
aI452
aI463
aI434
aI439
aI438
aI420
aI437
aI424
aI432
aI429
aI427
aI457
aI440
aI439
aI418
aI439
aI446
aI438
aI444
aI433
aI429
aI421
aI454
aI450
aI431
aI428
aI425
aI443
aI445
aI454
aI452
aI446
aI426
aI440
aI419
aI458
aI440
aI445
aI456
aI429
aI468
aI431
aI461
aI427
aI459
aI435
aI429
aI435
aI444
aI439
aI449
aI445
aI439
aI450
aI436
aI439
aI437
aI433
aI402
aI457
aI434
aI449
aI449
aI461
aI428
aI455
aI434
aI461
aI437
aI467
aI445
aI443
aI431
aI425
aI432
aI433
aI416
aI417
aI437
aI453
aI437
aI437
aI429
aI422
aI426
aI460
aI457
aI428
aI437
aI442
aI446
aI445
aI417
aI450
aI422
aI423
aI428
aI418
aI408
aI430
aI449
aI421
aI434
aI425
aI431
aI438
aI429
aI441
aI421
aI461
aI434
aI447
aI445
aI427
aI432
aI437
aI435
aI429
aI404
aI442
aI439
aI456
aI461
aI449
aI438
aI414
aI451
aI413
aI423
aI449
aI446
aI430
aI440
aI435
aI454
aI430
aI422
aI421
aI462
aI450
aI446
aI432
aI427
aI429
aI453
aI423
aI426
aI442
aI446
aI453
aI450
aI441
aI425
aI447
aI443
aI431
aI440
aI436
aI469
aI470
aI417
aI430
aI448
aI454
aI431
aI427
aI416
aI419
aI422
aI472
aI452
aI437
aI409
aI461
aI446
aI436
aI441
aI435
aI442
aI438
aI462
aI459
aI441
aI445
aI424
aI435
aI458
aI430
aI471
aI424
aI428
aI414
aI419
aI450
aI416
aI437
aI443
aI436
aI439
aI456
aI456
aI443
aI437
aI447
aI443
aI401
aI437
aI409
aI448
aI446
aI441
aI458
aI459
aI421
aI423
aI447
aI450
aI457
aI442
aI403
aI449
aI446
aI427
aI432
aI461
aI442
aI454
aI460
aI434
aI468
aI418
aI482
aI451
aI437
aI437
aI478
aI443
aI471
aI444
aI455
aI418
aI421
aI424
aI422
aI436
aI433
aI454
aI440
aI457
aI460
aI421
aI426
aI443
aI455
aI467
aI432
aI444
aI463
aI421
aI445
aI432
aI428
aI453
aI444
aI463
aI439
aI433
aI438
aI433
aI465
aI451
aI450
aI431
aI440
aI436
aI462
aI419
aI431
aI456
aI435
aI424
aI416
aI429
aI427
aI438
aI424
aI441
aI439
aI453
aI420
aI441
aI444
aI460
aI462
aI428
aI448
aI445
aI437
aI442
aI436
aI430
aI451
aI463
aI483
aI460
aI439
aI443
aI441
aI434
aI419
aI431
aI461
aI441
aI452
aI445
aI419
aI459
aI434
aI451
aI457
aI468
aI444
aI473
aI455
aI438
aI435
aI434
aI444
aI441
aI421
aI454
aI435
aI433
aI451
aI455
aI426
aI453
aI434
aI459
aI449
aI417
aI446
aI475
aI423
aI436
aI445
aI447
aI444
aI455
aI443
aI443
aI456
aI440
aI455
aI422
aI474
aI450
aI459
aI471
aI447
aI425
aI427
aI418
aI466
aI465
aI443
aI439
aI429
aI424
aI479
aI445
aI456
aI441
aI438
aI425
aI433
aI429
aI456
aI447
aI434
aI437
aI457
aI465
aI431
aI427
aI425
aI438
aI423
aI441
aI480
aI406
aI448
aI435
aI436
aI443
aI432
aI461
aI446
aI442
aI402
aI433
aI403
aI454
aI436
aI434
aI449
aI464
aI451
aI447
aI433
aI435
aI449
aI435
aI424
aI441
aI434
aI448
aI428
aI453
aI456
aI425
aI437
aI479
aI441
aI438
aI488
aI422
aI418
aI419
aI441
aI445
aI453
aI417
aI443
aI419
aI443
aI464
aI438
aI448
aI438
aI433
aI458
aI423
aI442
aI458
aI430
aI435
aI420
aI448
aI430
aI434
aI432
aI435
aI441
aI466
aI436
aI483
aI445
aI418
aI454
aI432
aI436
aI428
aI430
aI427
aI446
aI453
aI431
aI424
aI410
aI446
aI439
aI438
aI461
aI436
aI431
aI436
aI441
aI398
aI464
aI450
aI444
aI451
aI407
aI449
aI433
aI434
aI451
aI457
aI451
aI427
aI436
aI451
aI440
aI432
aI434
aI426
aI449
aI443
aI443
aI422
aI436
aI445
aI446
aI419
aI453
aI427
aI431
aI436
aI466
aI480
aI426
aI433
aI441
aI428
aI450
aI451
aI429
aI442
aI439
aI439
aI452
aI432
aI469
aI439
aI453
aI448
aI427
aI434
aI447
aI441
aI451
aI451
aI471
aI436
aI430
aI443
aI436
aI428
aI425
aI431
aI430
aI452
aI461
aI429
aI458
aI460
aI453
aI435
aI442
aI444
aI458
aI431
aI454
aI446
aI438
aI459
aI440
aI440
aI440
aI433
aI418
aI439
aI446
aI421
aI454
aI479
aI461
aI424
aI449
aI439
aI431
aI473
aI429
aI444
aI425
aI420
aI430
aI434
aI452
aI443
aI411
aI452
aI450
aI413
aI442
aI431
aI436
aI427
aI448
aI432
aI430
aI443
aI455
aI459
aI471
aI420
aI449
aI423
aI440
aI462
aI461
aI451
aI436
aI435
aI442
aI433
aI445
aI440
aI450
aI445
aI428
aI455
aI402
aI418
aI452
aI450
aI421
aI462
aI447
aI431
aI475
aI438
aI476
aI421
aI440
aI409
aI446
aI443
aI442
aI452
aI414
aI457
aI452
aI437
aI439
aI426
aI449
aI439
aI439
aI440
aI416
aI426
aI445
aI417
aI443
aI460
aI461
aI476
aI434
aI411
aI419
aI446
aI428
aI462
aI443
aI466
aI438
aI455
aI447
aI466
aI464
aI430
aI429
aI426
aI415
aI432
aI453
aI442
aI465
aI450
aI430
aI452
aI447
aI427
aI453
aI408
aI441
aI430
aI435
aI418
aI439
aI457
aI432
aI461
aI460
aI440
aI422
aI441
aI446
aI430
aI423
aI408
aI431
aI440
aI428
aI438
aI452
aI445
aI452
aI414
aI442
aI444
aI453
aI433
aI429
aI435
aI423
aI431
aI428
aI425
aI456
aI459
aI440
aI435
aI451
aI412
aI448
aI438
aI435
aI434
aI451
aI488
aI482
aI461
aI424
aI450
aI463
aI436
aI466
aI436
aI452
aI424
aI428
aI422
aI451
aI449
aI456
aI454
aI421
aI454
aI453
aI439
aI446
aI420
aI426
aI419
aI448
aI430
aI471
aI450
aI432
aI472
aI443
aI428
aI446
aI429
aI440
aI445
aI445
aI424
aI471
aI471
aI443
aI439
aI436
aI445
aI461
aI408
aI465
aI453
aI458
aI446
aI433
aI420
aI447
aI464
aI449
aI464
aI440
aI441
aI442
aI443
aI438
aI412
aI431
aI433
aI453
aI466
aI449
aI408
aI465
aI436
aI432
aI458
aI442
aI445
aI437
aI452
aI441
aI420
aI419
aI421
aI404
aI440
aI447
aI450
aI467
aI436
aI415
aI454
aI461
aI417
aI467
aI432
aI438
aI432
aI422
aI431
aI443
aI469
aI432
aI429
aI459
aI447
aI447
aI443
aI450
aI417
aI453
aI444
aI451
aI430
aI426
aI435
aI472
aI451
aI458
aI419
aI453
aI445
aI419
aI414
aI468
aI453
aI438
aI447
aI438
aI428
aI408
aI441
aI436
aI441
aI436
aI414
aI435
aI463
aI437
aI461
aI425
aI428
aI448
aI399
aI443
aI460
aI440
aI454
aI419
aI433
aI446
aI463
aI455
aI436
aI406
aI459
aI432
aI416
aI457
aI434
aI450
aI443
aI464
aI454
aI422
aI427
aI434
aI459
aI468
aI438
aI437
aI425
aI447
aI434
aI418
aI405
aI437
aI421
aI462
aI429
aI445
aI470
aI431
aI436
aI416
aI424
aI460
aI434
aI453
aI431
aI415
aI436
aI427
aI454
aI441
aI439
aI425
aI407
aI439
aI459
aI442
aI443
aI460
aI434
aI414
aI472
aI448
aI473
aI414
aI422
aI441
aI449
aI440
aI453
aI453
aI432
aI448
aI418
aI446
aI465
aI446
aI413
aI433
aI432
aI455
aI419
aI428
aI427
aI420
aI442
aI452
aI475
aI449
aI448
aI427
aI454
aI431
aI448
aI434
aI425
aI434
aI469
aI451
aI442
aI451
aI425
aI428
aI458
aI437
aI423
aI449
aI473
aI446
aI419
aI439
aI428
aI442
aI440
aI464
aI433
aI433
aI474
aI446
aI436
aI442
aI432
aI432
aI432
aI428
aI435
aI441
aI433
aI436
aI437
aI434
aI445
aI459
aI437
aI423
aI410
aI432
aI418
aI456
aI459
aI431
aI465
aI463
aI413
aI426
aI439
aI406
aI446
aI421
aI442
aI445
aI414
aI424
aI463
aI445
aI447
aI434
aI419
aI430
aI469
aI440
aI427
aI441
aI427
aI444
aI416
aI431
aI438
aI458
aI429
aI423
aI434
aI459
aI467
aI440
aI434
aI442
aI440
aI431
aI402
aI441
aI450
aI446
aI448
aI439
aI409
aI432
aI447
aI422
aI424
aI437
aI425
aI425
aI428
aI484
aI470
aI423
aI452
aI444
aI437
aI440
aI452
aI429
aI403
aI447
aI443
aI440
aI426
aI462
aI441
aI453
aI416
aI439
aI433
aI450
aI451
aI434
aI435
aI441
aI440
aI440
aI444
aI450
aI460
aI448
aI446
aI481
aI445
aI454
aI438
aI449
aI453
aI439
aI440
aI430
aI443
aI414
aI456
aI433
aI455
aI463
aI470
aI416
aI430
aI439
aI441
aI437
aI447
aI435
aI416
aI425
aI456
aI452
aI446
aI453
aI447
aI432
aI439
aI444
aI411
aI456
aI439
aI437
aI400
aI439
aI457
aI477
aI436
aI430
aI420
aI413
aI467
aI432
aI446
aI452
aI457
aI446
aI444
aI431
aI438
aI436
aI430
aI442
aI462
aI468
aI410
aI422
aI434
aI462
aI465
aI443
aI462
aI467
aI453
aI419
aI424
aI420
aI431
aI409
aI430
aI429
aI426
aI422
aI420
aI460
aI426
aI448
aI456
aI438
aI418
aI408
aI449
aI456
aI469
aI429
aI448
aI439
aI441
aI444
aI406
aI437
aI438
aI450
aI447
aI416
aI441
aI443
aI454
aI456
aI427
aI426
aI436
aI434
aI431
aI445
aI445
aI430
aI440
aI434
aI446
aI459
aI424
aI442
aI411
aI435
aI452
aI461
aI424
aI438
aI455
aI439
aI438
aI436
aI465
aI440
aI442
aI448
aI440
aI452
aI434
aI405
aI412
aI451
aI428
aI440
aI420
aI419
aI472
aI428
aI453
aI457
aI447
aI437
aI434
aI413
aI447
aI451
aI435
aI443
aI446
aI430
aI445
aI465
aI446
aI454
aI447
aI461
aI445
aI447
aI461
aI438
aI475
aI429
aI417
aI453
aI449
aI450
aI450
aI448
aI461
aI421
aI447
aI423
aI425
aI426
aI432
aI419
aI458
aI455
aI430
aI434
aI447
aI446
aI437
aI429
aI425
aI428
aI445
aI475
aI456
aI469
aI430
aI445
aI475
aI450
aI407
aI442
aI425
aI450
aI451
aI460
aI441
aI446
aI413
aI432
aI444
aI428
aI434
aI416
aI451
aI442
aI439
aI443
aI439
aI438
aI443
aI428
aI442
aI463
aI408
aI434
aI428
aI433
aI447
aI455
aI405
aI453
aI432
aI432
aI432
aI441
aI405
aI439
aI463
aI453
aI431
aI456
aI437
aI474
aI425
aI432
aI438
aI441
aI439
aI454
aI441
aI457
aI460
aI429
aI446
aI437
aI444
aI444
aI406
aI428
aI428
aI421
aI422
aI414
aI479
aI425
aI421
aI461
aI418
aI459
aI435
aI452
aI437
aI431
aI453
aI446
aI426
aI431
aI417
aI429
aI434
aI440
aI459
aI399
aI454
aI432
aI456
aI439
aI422
aI438
aI421
aI447
aI462
aI437
aI415
aI431
aI446
aI444
aI449
aI434
aI451
aI433
aI434
aI434
aI444
aI466
aI417
aI415
aI449
aI419
aI425
aI451
aI468
aI414
aI447
aI452
aI446
aI484
aI485
aI425
aI463
aI441
aI428
aI454
aI469
aI463
aI426
aI419
aI481
aI458
aI450
aI445
aI433
aI455
aI430
aI442
aI428
aI455
aI461
aI434
aI447
aI449
aI446
aI423
aI437
aI438
aI450
aI463
aI449
aI416
aI441
aI450
aI441
aI445
aI431
aI439
aI425
aI444
aI448
aI453
aI446
aI437
aI444
aI452
aI413
aI450
aI461
aI441
aI434
aI432
aI464
aI432
aI446
aI444
aI445
aI434
aI446
aI442
aI437
aI427
aI424
aI435
aI420
aI435
aI438
aI435
aI439
aI422
aI427
aI458
aI430
aI433
aI439
aI436
aI442
aI436
aI452
aI453
aI431
aI429
aI443
aI437
aI439
aI413
aI449
aI474
aI443
aI447
aI419
aI420
aI430
aI450
aI449
aI457
aI457
aI459
aI420
aI431
aI419
aI472
aI454
aI448
aI445
aI439
aI428
aI434
aI430
aI432
aI460
aI452
aI411
aI458
aI437
aI446
aI436
aI444
aI443
aI416
aI423
aI463
aI439
aI434
aI442
aI437
aI459
aI432
aI437
aI467
aI435
aI462
aI444
aI437
aI445
aI435
aI447
aI430
aI425
aI454
aI432
aI428
aI431
aI431
aI438
aI430
aI431
aI467
aI420
aI454
aI432
aI463
aI435
aI419
aI447
aI418
aI452
aI448
aI431
aI441
aI441
aI424
aI459
aI446
aI452
aI442
aI471
aI439
aI452
aI426
aI442
aI417
aI454
aI433
aI432
aI424
aI420
aI430
aI447
aI434
aI436
aI454
aI450
aI426
aI445
aI429
aI453
aI440
aI456
aI462
aI477
aI458
aI455
aI414
aI461
aI465
aI466
aI458
aI451
aI411
aI418
aI455
aI426
aI437
aI414
aI485
aI433
aI438
aI443
aI446
aI464
aI461
aI436
aI448
aI425
aI446
aI432
aI449
aI452
aI410
aI463
aI441
aI452
aI429
aI439
aI448
aI449
aI470
aI444
aI430
aI456
aI469
aI440
aI442
aI435
aI429
aI449
aI454
aI419
aI434
aI458
aI465
aI434
aI451
aI461
aI425
aI416
aI414
aI415
aI440
aI452
aI480
aI438
aI436
aI448
aI430
aI433
aI429
aI475
aI422
aI442
aI445
aI452
aI431
aI416
aI429
aI426
aI439
aI436
aI419
aI439
aI444
aI447
aI444
aI445
aI435
aI429
aI428
aI448
aI440
aI421
aI452
aI485
aI435
aI448
aI458
aI447
aI451
aI444
aI455
aI441
aI443
aI453
aI443
aI425
aI447
aI444
aI428
aI461
aI433
aI419
aI444
aI451
aI449
aI411
aI440
aI437
aI436
aI431
aI422
aI436
aI426
aI466
aI420
aI438
aI437
aI440
aI461
aI439
aI447
aI435
aI457
aI435
aI456
aI433
aI429
aI440
aI434
aI440
aI441
aI420
aI453
aI452
aI443
aI471
aI429
aI436
aI426
aI406
aI423
aI449
aI433
aI446
aI439
aI437
aI429
aI434
aI449
aI452
aI454
aI434
aI428
aI444
aI444
aI438
aI438
aI421
aI454
aI431
aI440
aI458
aI443
aI431
aI429
aI437
aI420
aI422
aI436
aI453
aI447
aI427
aI439
aI424
aI453
aI450
aI434
aI427
aI424
aI431
aI426
aI454
aI461
aI440
aI453
aI431
aI440
aI467
aI469
aI474
aI433
aI421
aI418
aI453
aI462
aI451
aI451
aI441
aI440
aI453
aI461
aI447
aI414
aI410
aI426
aI437
aI431
aI431
aI448
aI455
aI478
aI441
aI439
aI410
aI439
aI446
aI435
aI427
aI463
aI432
aI416
aI437
aI421
aI428
aI417
aI436
aI447
aI438
aI442
aI458
aI456
aI441
aI426
aI433
aI450
aI438
aI431
aI422
aI434
aI443
aI465
aI437
aI437
aI426
aI453
aI435
aI471
aI459
aI452
aI418
aI428
aI466
aI455
aI412
aI440
aI470
aI441
aI450
aI429
aI445
aI442
aI462
aI435
aI437
aI469
aI442
aI449
aI429
aI455
aI449
aI450
aI444
aI439
aI465
aI476
aI427
aI457
aI431
aI431
aI453
aI444
aI413
aI444
aI437
aI474
aI451
aI430
aI410
aI462
aI416
aI437
aI444
aI426
aI477
aI464
aI446
aI456
aI423
aI456
aI460
aI451
aI439
aI469
aI426
aI438
aI431
aI437
aI440
aI428
aI453
aI449
aI456
aI421
aI440
aI474
aI414
aI428
aI452
aI446
aI445
aI426
aI450
aI421
aI439
aI450
aI440
aI434
aI461
aI460
aI432
aI441
aI441
aI455
aI444
aI417
aI453
aI423
aI448
aI450
aI424
aI416
aI433
aI449
aI444
aI436
aI440
aI428
aI430
aI460
aI441
aI434
aI417
aI450
aI454
aI427
aI425
aI456
aI445
aI446
aI452
aI432
aI437
aI431
aI438
aI445
aI423
aI454
aI464
aI466
aI399
aI458
aI456
aI437
aI438
aI455
aI423
aI473
aI414
aI436
aI420
aI472
aI435
aI442
aI456
aI464
aI419
aI411
aI454
aI422
aI433
aI448
aI446
aI400
aI463
aI473
aI431
aI429
aI422
aI438
aI438
aI450
aI422
aI422
aI440
aI443
aI468
aI436
aI440
aI432
aI427
aI431
aI446
aI456
aI420
aI404
aI424
aI421
aI453
aI416
aI417
aI431
aI459
aI424
aI431
aI460
aI456
aI433
aI448
aI442
aI438
aI452
aI423
aI452
aI416
aI433
aI440
aI440
aI446
aI441
aI425
aI452
aI431
aI437
aI446
aI442
aI437
aI428
aI474
aI449
aI418
aI440
aI432
aI433
aI413
aI439
aI415
aI445
aI441
aI422
aI445
aI427
aI456
aI459
aI427
aI445
aI423
aI442
aI448
aI462
aI455
aI436
aI444
aI448
aI414
aI437
aI451
aI444
aI445
aI444
aI458
aI428
aI435
aI431
aI443
aI445
aI458
aI427
aI457
aI413
aI441
aI427
aI456
aI465
aI428
aI423
aI442
aI430
aI423
aI473
aI440
aI458
aI428
aI435
aI437
aI448
aI446
aI430
aI431
aI400
aI435
aI444
aI425
aI422
aI462
aI443
aI422
aI407
aI431
aI458
aI445
aI435
aI457
aI431
aI457
aI445
aI424
aI448
aI441
aI464
aI440
aI423
aI429
aI442
aI425
aI439
aI434
aI452
aI428
aI431
aI444
aI448
aI444
aI440
aI436
aI457
aI440
aI449
aI461
aI449
aI455
aI433
aI442
aI409
aI456
aI438
aI474
aI447
aI449
aI440
aI443
aI436
aI429
aI423
aI430
aI461
aI437
aI452
aI450
aI410
aI416
aI439
aI412
aI423
aI438
aI437
aI426
aI423
aI438
aI445
aI455
aI419
aI438
aI454
aI422
aI441
aI425
aI439
aI442
aI475
aI445
aI443
aI435
aI439
aI449
aI416
aI414
aI415
aI412
aI451
aI444
aI465
aI470
aI436
aI443
aI433
aI456
aI429
aI419
aI451
aI441
aI442
aI463
aI452
aI426
aI447
aI423
aI473
aI482
aI429
aI465
aI436
aI412
aI431
aI463
aI451
aI430
aI426
aI463
aI425
aI432
aI419
aI456
aI451
aI417
aI432
aI477
aI435
aI422
aI452
aI441
aI428
aI440
aI430
aI431
aI426
aI446
aI432
aI446
aI432
aI436
aI441
aI417
aI426
aI450
aI422
aI417
aI422
aI428
aI441
aI429
aI417
aI469
aI437
aI451
aI417
aI441
aI450
aI440
aI447
aI425
aI425
aI444
aI472
aI430
aI427
aI434
aI463
aI464
aI436
aI478
aI439
aI451
aI417
aI438
aI422
aI454
aI418
aI450
aI449
aI429
aI460
aI451
aI435
aI445
aI434
aI440
aI409
aI410
aI438
aI426
aI449
aI463
aI457
aI420
aI403
aI431
aI416
aI422
aI425
aI439
aI440
aI445
aI430
aI430
aI443
aI430
aI445
aI436
aI438
aI443
aI429
aI427
aI429
aI434
aI448
aI449
aI434
aI445
aI457
aI443
aI429
aI435
aI439
aI425
aI461
aI424
aI451
aI429
aI469
aI440
aI414
aI441
aI413
aI425
aI437
aI444
aI461
aI392
aI426
aI452
aI462
aI458
aI439
aI430
aI444
aI422
aI463
aI458
aI435
aI422
aI463
aI425
aI438
aI433
aI463
aI416
aI451
aI468
aI434
aI435
aI439
aI440
aI448
aI432
aI449
aI446
aI409
aI449
aI424
aI423
aI450
aI426
aI452
aI424
aI450
aI455
aI452
aI447
aI435
aI444
aI455
aI439
aI455
aI419
aI423
aI417
aI439
aI429
aI443
aI412
aI440
aI432
aI433
aI429
aI442
aI441
aI428
aI467
aI427
aI479
aI452
aI454
aI444
aI446
aI416
aI414
aI433
aI433
aI469
aI460
aI455
aI442
aI455
aI440
aI449
aI422
aI443
aI453
aI453
aI457
aI447
aI420
aI432
aI437
aI452
aI431
aI442
aI419
aI430
aI455
aI444
aI444
aI447
aI430
aI445
aI428
aI449
aI459
aI438
aI454
aI454
aI464
aI425
aI412
aI454
aI445
aI452
aI445
aI434
aI434
aI440
aI457
aI430
aI462
aI414
aI447
aI424
aI483
aI453
aI436
aI431
aI426
aI423
aI424
aI467
aI439
aI433
aI443
aI436
aI440
a.