(lp0
F0.18
aF0.65
aF0.48
aF0.15
aF0.65
aF0.25
aF0.31
aF0.87
aF0.37
aF0.71
aF0.4
aF0.13
aF0.16
aF0.58
aF0.86
aF0.01
aF0.77
aF0.69
aF0.31
aF0.92
aF0.33
aF0.3
aF0.24
aF0.02
aF0.11
aF0.81
aF0.18
aF0.51
aF0.38
aF0.12
aF0.11
aF0.06
aF0.59
aF0.75
aF0.5
aF0.64
aF1.0
aF0.49
aF0.07
aF0.38
aF0.48
aF0.93
aF0.72
aF0.8
aF0.96
aF0.05
aF0.69
aF0.2
aF0.38
aF0.85
aF0.53
aF0.79
aF0.2
aF0.45
aF0.75
aF0.21
aF0.06
aF0.73
aF0.32
aF0.22
aF0.86
aF0.8
aF0.65
aF0.69
aF0.31
aF0.01
aF0.66
aF0.79
aF0.46
aF0.27
aF0.32
aF0.39
aF0.57
aF0.83
aF0.8
aF0.99
aF0.26
aF0.12
aF0.65
aF0.13
aF0.3
aF0.16
aF0.21
aF0.65
aF0.43
aF0.24
aF0.84
aF0.97
aF0.1
aF0.92
aF0.37
aF0.04
aF0.55
aF0.31
aF0.19
aF0.44
aF0.85
aF0.48
aF0.55
aF0.85
aF0.4
aF0.07
aF0.6
aF0.24
aF0.2
aF0.58
aF0.68
aF0.98
aF0.03
aF0.64
aF0.61
aF0.26
aF0.61
aF0.26
aF0.1
aF0.43
aF0.67
aF0.04
aF0.08
aF0.09
aF0.45
aF0.18
aF0.02
aF0.85
aF0.25
aF0.39
aF0.72
aF0.34
aF0.44
aF0.53
aF0.73
aF0.37
aF0.4
aF0.37
aF0.39
aF0.26
aF0.2
aF0.98
aF0.91
aF0.79
aF0.13
aF0.79
aF0.6
aF0.16
aF0.75
aF0.86
aF0.27
aF0.28
aF0.84
aF0.45
aF0.15
aF0.83
aF0.98
aF0.03
aF0.28
aF0.64
aF0.25
aF0.56
aF0.72
aF0.07
aF0.01
aF0.47
aF0.22
aF0.72
aF0.94
aF0.13
aF0.95
aF0.19
aF0.94
aF0.42
aF0.81
aF0.25
aF0.6
aF0.13
aF0.3
aF0.77
aF0.92
aF0.36
aF0.73
aF0.42
aF0.62
aF0.03
aF0.72
aF0.47
aF0.81
aF0.03
aF0.41
aF0.45
aF0.59
aF0.94
aF0.39
aF0.22
aF0.99
aF0.98
aF0.56
aF0.64
aF0.3
aF0.23
aF0.2
aF0.9
aF0.06
aF0.63
aF0.93
aF0.18
aF0.06
aF0.1
aF0.19
aF0.14
aF0.48
aF0.38
aF0.41
aF0.76
aF0.26
aF0.35
aF0.78
aF0.36
aF0.75
aF0.14
aF0.86
aF0.15
aF0.4
aF0.8
aF0.29
aF0.56
aF0.76
aF0.78
aF0.65
aF0.72
aF0.67
aF0.73
aF0.72
aF0.01
aF0.09
aF0.84
aF0.35
aF0.19
aF0.07
aF0.54
aF0.02
aF0.33
aF0.23
aF0.96
aF0.73
aF0.48
aF0.91
aF0.79
aF0.1
aF0.77
aF0.62
aF0.66
aF0.92
aF0.5
aF0.73
aF0.9
aF0.41
aF0.63
aF0.7
aF0.12
aF0.3
aF0.55
aF0.67
aF0.53
aF0.55
aF0.24
aF0.92
aF0.37
aF0.44
aF0.23
aF0.29
aF0.09
aF0.43
aF0.6
aF0.6
aF0.53
aF0.04
aF0.88
aF0.45
aF0.48
aF0.72
aF0.06
aF0.7
aF0.04
aF0.07
aF0.3
aF0.53
aF0.96
aF0.61
aF0.74
aF0.12
aF0.08
aF0.44
aF0.31
aF0.69
aF0.39
aF0.9
aF0.32
aF0.45
aF0.67
aF0.91
aF0.25
aF0.94
aF0.87
aF0.15
aF0.55
aF0.03
aF0.98
aF0.65
aF0.38
aF0.77
aF0.51
aF0.49
aF0.48
aF0.52
aF0.66
aF0.36
aF0.3
aF0.35
aF0.93
aF0.58
aF0.39
aF0.59
aF0.44
aF0.59
aF0.51
aF0.08
aF0.69
aF0.07
aF0.83
aF0.04
aF0.62
aF0.74
aF0.37
aF0.13
aF0.12
aF0.69
aF0.41
aF0.48
aF0.97
aF0.65
aF0.34
aF0.53
aF0.97
aF0.54
aF0.28
aF0.33
aF0.7
aF0.78
aF0.1
aF0.3
aF0.81
aF0.73
aF0.33
aF0.78
aF0.65
aF0.36
aF0.96
aF0.07
aF0.35
aF0.2
aF0.22
aF0.68
aF0.23
aF0.54
aF0.31
aF0.97
aF0.41
aF0.02
aF0.17
aF0.06
aF0.34
aF0.56
aF0.55
aF0.17
aF0.04
aF0.75
aF0.6
aF0.1
aF0.66
aF0.96
aF0.68
aF0.9
aF0.38
aF0.46
aF0.36
aF0.85
aF0.71
aF0.34
aF0.82
aF0.06
aF0.37
aF0.05
aF0.65
aF0.17
aF0.23
aF0.31
aF0.67
aF0.49
aF0.22
aF0.98
aF0.64
aF0.29
aF0.14
aF0.84
aF0.29
aF0.22
aF0.14
aF0.98
aF0.45
aF0.92
aF0.7
aF0.21
aF0.21
aF0.06
aF0.13
aF0.14
aF0.11
aF0.69
aF0.4
aF0.95
aF0.2
aF0.75
aF0.9
aF0.02
aF0.32
aF0.87
aF0.41
aF1.0
aF0.21
aF0.24
aF0.2
aF0.75
aF0.33
aF0.83
aF0.81
aF0.05
aF0.33
aF0.11
aF0.01
aF0.7
aF0.55
aF0.85
aF0.44
aF0.29
aF0.47
aF0.09
aF0.31
aF0.84
aF0.73
aF0.34
aF0.09
aF0.54
aF0.67
aF0.75
aF0.51
aF0.38
aF0.33
aF0.35
aF0.19
aF0.34
aF0.15
aF0.97
aF0.94
aF0.97
aF0.19
aF0.05
aF0.9
aF0.39
aF0.12
aF0.38
aF0.96
aF0.5
aF0.67
aF0.46
aF0.13
aF0.14
aF0.41
aF0.38
aF0.48
aF0.06
aF0.85
aF0.72
aF0.35
aF0.29
aF0.49
aF0.18
aF0.04
aF0.09
aF0.39
aF0.99
aF0.97
aF0.73
aF0.5
aF0.87
aF0.43
aF0.46
aF0.18
aF0.91
aF0.6
aF0.55
aF0.38
aF0.46
aF0.39
aF0.63
aF0.29
aF0.35
aF0.31
aF0.46
aF0.55
aF0.78
aF0.3
aF0.83
aF0.92
aF0.02
aF0.71
aF0.88
aF0.23
aF0.96
aF0.71
aF0.48
aF0.33
aF0.5
aF0.57
aF0.72
aF0.86
aF0.84
aF0.94
aF0.6
aF0.24
aF0.03
aF0.03
aF0.89
aF0.22
aF0.35
aF0.32
aF0.58
aF0.51
aF0.21
aF0.17
aF0.55
aF0.74
aF0.72
aF0.87
aF0.35
aF0.01
aF0.81
aF0.92
aF0.32
aF0.03
aF0.87
aF0.79
aF0.04
aF0.79
aF0.99
aF0.99
aF0.18
aF0.33
aF0.54
aF0.19
aF0.65
aF0.17
aF0.54
aF0.82
aF0.26
aF0.43
aF0.38
aF0.71
aF0.29
aF0.44
aF0.64
aF0.02
aF0.9
aF0.07
aF0.89
aF0.58
aF0.93
aF0.84
aF0.64
aF0.2
aF0.62
aF0.53
aF0.18
aF0.13
aF0.95
aF0.62
aF0.56
aF0.41
aF0.56
aF0.23
aF0.71
aF0.44
aF0.72
aF0.86
aF0.5
aF0.34
aF0.2
aF0.56
aF0.26
aF0.24
aF0.72
aF0.74
aF0.31
aF0.51
aF0.17
aF0.84
aF0.68
aF0.79
aF0.48
aF0.63
aF0.09
aF0.47
aF0.93
aF0.72
aF0.74
aF0.51
aF0.88
aF0.51
aF0.57
aF0.77
aF0.81
aF0.82
aF0.44
aF0.28
aF0.94
aF0.07
aF0.38
aF0.39
aF0.61
aF0.06
aF0.08
aF0.42
aF0.41
aF0.19
aF0.59
aF0.41
aF0.15
aF0.57
aF0.64
aF0.31
aF0.95
aF0.42
aF0.34
aF0.71
aF0.86
aF0.22
aF0.1
aF0.49
aF0.5
aF0.64
aF0.64
aF0.83
aF0.73
aF0.34
aF0.18
aF0.79
aF0.33
aF0.98
aF0.83
aF0.05
aF0.84
aF0.63
aF0.23
aF0.08
aF0.77
aF0.18
aF0.98
aF0.64
aF0.24
aF0.81
aF0.97
aF0.75
aF0.71
aF0.14
aF0.74
aF0.99
aF0.97
aF0.48
aF0.67
aF0.51
aF0.87
aF0.51
aF0.29
aF0.18
aF0.57
aF0.55
aF0.41
aF0.45
aF0.74
aF0.92
aF0.01
aF0.07
aF0.85
aF0.36
aF0.78
aF0.11
aF0.83
aF0.57
aF0.72
aF0.6
aF0.21
aF0.89
aF0.49
aF0.45
aF0.85
aF0.02
aF0.67
aF0.73
aF0.06
aF0.04
aF0.33
aF0.85
aF0.73
aF0.18
aF0.76
aF0.8
aF0.82
aF0.12
aF0.28
aF0.26
aF0.29
aF0.53
aF0.51
aF0.27
aF0.79
aF0.82
aF0.86
aF0.1
aF0.16
aF0.81
aF0.7
aF0.51
aF0.22
aF0.07
aF0.79
aF0.48
aF0.06
aF0.09
aF0.34
aF0.24
aF0.52
aF0.31
aF0.35
aF0.99
aF0.52
aF0.35
aF0.88
aF0.38
aF0.45
aF0.11
aF0.37
aF0.29
aF0.53
aF0.07
aF0.94
aF0.84
aF0.91
aF0.85
aF0.25
aF0.99
aF0.82
aF0.97
aF0.29
aF1.0
aF0.57
aF0.94
aF0.23
aF0.21
aF0.49
aF1.0
aF0.19
aF0.55
aF0.68
aF1.0
aF0.35
aF0.07
aF0.22
aF0.17
aF1.0
aF0.6
aF0.78
aF0.91
aF0.52
aF0.1
aF0.51
aF0.72
aF0.17
aF0.58
aF0.79
aF0.39
aF0.87
aF0.53
aF0.25
aF0.43
aF0.96
aF0.25
aF0.42
aF0.59
aF0.02
aF0.4
aF0.66
aF0.01
aF0.22
aF0.96
aF0.01
aF0.37
aF0.34
aF0.56
aF1.0
aF1.0
aF0.04
aF0.6
aF0.03
aF0.23
aF0.38
aF0.41
aF0.78
aF0.86
aF0.21
aF0.31
aF0.27
aF0.66
aF0.7
aF0.45
aF0.04
aF0.06
aF0.1
aF0.24
aF0.37
aF0.43
aF0.03
aF0.72
aF0.14
aF1.0
aF0.84
aF0.05
aF0.62
aF0.16
aF0.59
aF0.5
aF0.52
aF0.49
aF0.04
aF0.29
aF0.67
aF0.16
aF0.61
aF0.26
aF0.88
aF0.03
aF0.14
aF0.72
aF0.32
aF0.67
aF0.32
aF0.14
aF0.45
aF0.69
aF0.22
aF0.26
aF0.48
aF0.03
aF0.5
aF0.48
aF0.05
aF0.38
aF0.87
aF0.27
aF0.32
aF0.86
aF0.42
aF0.51
aF0.79
aF0.74
aF0.08
aF0.93
aF0.11
aF0.02
aF0.55
aF0.69
aF0.91
aF0.06
aF0.17
aF0.6
aF0.34
aF0.56
aF0.58
aF0.89
aF0.12
aF0.14
aF0.47
aF0.69
aF0.34
aF0.43
aF0.62
aF1.0
aF0.33
aF0.36
aF0.59
aF0.81
aF0.11
aF0.61
aF0.76
aF0.41
aF0.12
aF0.87
aF0.8
aF0.43
aF0.04
aF0.79
aF0.99
aF0.66
aF0.84
aF0.58
aF0.13
aF0.25
aF0.01
aF0.53
aF0.91
aF0.9
aF0.24
aF0.62
aF0.41
aF0.43
aF0.92
aF0.12
aF0.29
aF0.45
aF0.36
aF0.76
aF1.0
aF0.29
aF0.95
aF0.83
aF0.75
aF0.72
aF0.46
aF0.64
aF0.83
aF0.66
aF0.14
aF0.92
aF0.69
aF0.06
aF0.42
aF0.24
aF0.27
aF0.94
aF0.86
aF0.1
aF0.54
aF0.3
aF0.45
aF0.29
aF0.35
aF0.13
aF0.13
aF0.22
aF0.69
aF0.48
aF0.24
aF0.08
aF0.47
aF0.13
aF0.44
aF0.74
aF0.68
aF0.96
aF0.38
aF0.38
aF0.54
aF0.93
aF0.47
aF0.5
aF0.19
aF0.7
aF0.74
aF0.87
aF0.1
aF0.91
aF0.7
aF0.67
aF0.64
aF0.74
aF0.92
aF0.07
aF0.77
aF0.02
aF0.97
aF0.02
aF0.19
aF0.34
aF0.82
aF0.98
aF0.44
aF0.7
aF0.39
aF0.81
aF0.22
aF0.35
aF0.78
aF0.61
a.