(lp0
I460
aI442
aI456
aI462
aI472
aI444
aI449
aI474
aI448
aI447
aI448
aI461
aI454
aI466
aI444
aI437
aI453
aI450
aI429
aI460
aI436
aI445
aI461
aI453
aI446
aI447
aI464
aI431
aI465
aI449
aI464
aI461
aI459
aI466
aI456
aI444
aI450
aI464
aI440
aI456
aI445
aI440
aI450
aI466
aI449
aI437
aI462
aI457
aI438
aI469
aI446
aI449
aI454
aI461
aI441
aI445
aI464
aI448
aI440
aI461
aI465
aI460
aI466
aI476
aI461
aI472
aI448
aI449
aI447
aI472
aI445
aI459
aI450
aI447
aI446
aI461
aI449
aI451
aI474
aI454
aI474
aI453
aI460
aI444
aI454
aI441
aI457
aI486
aI450
aI473
aI450
aI464
aI439
aI450
aI468
aI442
aI439
aI471
aI446
aI434
aI458
aI449
aI446
aI458
aI475
aI438
aI434
aI443
aI438
aI451
aI459
aI463
aI453
aI435
aI452
aI424
aI420
aI472
aI445
aI436
aI449
aI462
aI458
aI438
aI450
aI449
aI468
aI468
aI451
aI441
aI433
aI440
aI435
aI438
aI454
aI455
aI448
aI450
aI457
aI455
aI443
aI474
aI456
aI447
aI462
aI439
aI446
aI451
aI471
aI434
aI459
aI436
aI448
aI454
aI450
aI467
aI463
aI466
aI483
aI453
aI447
aI452
aI450
aI470
aI467
aI439
aI442
aI469
aI460
aI474
aI464
aI464
aI434
aI465
aI444
aI438
aI442
aI446
aI449
aI472
aI472
aI442
aI457
aI461
aI459
aI476
aI450
aI460
aI453
aI485
aI441
aI440
aI465
aI441
aI441
aI451
aI441
aI443
aI447
aI460
aI449
aI460
aI449
aI461
aI452
aI468
aI454
aI429
aI441
aI454
aI443
aI452
aI458
aI460
aI463
aI457
aI429
aI440
aI449
aI467
aI452
aI442
aI466
aI436
aI470
aI431
aI449
aI475
aI463
aI448
aI451
aI457
aI443
aI464
aI449
aI444
aI458
aI441
aI455
aI449
aI455
aI451
aI469
aI454
aI435
aI454
aI463
aI428
aI449
aI456
aI455
aI466
aI458
aI445
aI438
aI447
aI446
aI454
aI450
aI417
aI450
aI447
aI473
aI457
aI447
aI476
aI451
aI471
aI436
aI465
aI434
aI442
aI446
aI445
aI445
aI466
aI449
aI469
aI462
aI449
aI446
aI454
aI465
aI464
aI440
aI438
aI454
aI463
aI455
aI430
aI452
aI431
aI464
aI470
aI438
aI463
aI447
aI427
aI456
aI442
aI452
aI468
aI472
aI473
aI483
aI451
aI452
aI477
aI467
aI426
aI442
aI452
aI446
aI439
aI444
aI454
aI455
aI449
aI448
aI442
aI451
aI468
aI451
aI460
aI444
aI446
aI454
aI476
aI425
aI438
aI461
aI449
aI462
aI443
aI448
aI454
aI451
aI448
aI434
aI440
aI455
aI434
aI439
aI452
aI448
aI435
aI475
aI441
aI461
aI447
aI465
aI422
aI447
aI446
aI447
aI443
aI450
aI463
aI460
aI436
aI430
aI440
aI456
aI445
aI447
aI435
aI471
aI454
aI451
aI443
aI434
aI471
aI467
aI462
aI463
aI464
aI466
aI458
aI453
aI459
aI420
aI428
aI461
aI462
aI446
aI439
aI440
aI439
aI451
aI454
aI479
aI450
aI444
aI438
aI450
aI448
aI455
aI456
aI451
aI436
aI448
aI433
aI434
aI474
aI471
aI444
aI435
aI452
aI455
aI456
aI461
aI446
aI450
aI457
aI445
aI441
aI446
aI464
aI446
aI439
aI439
aI435
aI416
aI451
aI461
aI436
aI464
aI457
aI444
aI442
aI456
aI432
aI442
aI472
aI466
aI447
aI456
aI457
aI434
aI463
aI443
aI466
aI438
aI455
aI456
aI439
aI440
aI449
aI456
aI466
aI449
aI440
aI453
aI446
aI452
aI452
aI460
aI446
aI447
aI448
aI463
aI478
aI458
aI442
aI487
aI470
aI456
aI430
aI449
aI448
aI473
aI456
aI434
aI478
aI459
aI438
aI465
aI469
aI467
aI457
aI460
aI427
aI452
aI456
aI448
aI471
aI470
aI453
aI462
aI444
aI454
aI446
aI445
aI436
aI469
aI457
aI449
aI443
aI465
aI456
aI445
aI442
aI452
aI440
aI430
aI479
aI442
aI440
aI455
aI447
aI448
aI444
aI455
aI464
aI455
aI428
aI467
aI459
aI449
aI460
aI452
aI487
aI451
aI474
aI447
aI468
aI470
aI464
aI456
aI467
aI447
aI452
aI451
aI465
aI457
aI453
aI474
aI433
aI471
aI452
aI454
aI447
aI444
aI438
aI440
aI461
aI469
aI444
aI471
aI456
aI454
aI470
aI460
aI460
aI438
aI461
aI445
aI461
aI452
aI470
aI431
aI445
aI445
aI429
aI456
aI443
aI466
aI469
aI452
aI456
aI457
aI444
aI459
aI440
aI448
aI472
aI461
aI450
aI476
aI445
aI449
aI461
aI449
aI438
aI447
aI457
aI437
aI439
aI454
aI460
aI433
aI467
aI445
aI457
aI471
aI459
aI442
aI439
aI433
aI469
aI424
aI436
aI464
aI458
aI462
aI454
aI452
aI447
aI454
aI466
aI473
aI457
aI455
aI437
aI466
aI455
aI476
aI457
aI444
aI439
aI436
aI444
aI436
aI461
aI470
aI450
aI478
aI461
aI445
aI443
aI450
aI448
aI460
aI468
aI444
aI451
aI430
aI429
aI451
aI424
aI450
aI473
aI464
aI466
aI472
aI453
aI448
aI461
aI458
aI446
aI440
aI446
aI439
aI446
aI459
aI466
aI446
aI454
aI428
aI476
aI478
aI443
aI445
aI425
aI450
aI444
aI460
aI446
aI472
aI451
aI461
aI445
aI451
aI462
aI460
aI437
aI456
aI441
aI455
aI451
aI459
aI472
aI443
aI447
aI439
aI436
aI450
aI449
aI429
aI427
aI457
aI427
aI453
aI440
aI449
aI475
aI460
aI431
aI457
aI445
aI425
aI472
aI449
aI448
aI453
aI472
aI446
aI461
aI459
aI443
aI432
aI459
aI475
aI456
aI446
aI454
aI449
aI443
aI454
aI438
aI452
aI443
aI438
aI457
aI445
aI445
aI460
aI462
aI469
aI462
aI449
aI456
aI454
aI448
aI456
aI461
aI461
aI439
aI466
aI462
aI445
aI464
aI472
aI463
aI470
aI437
aI477
aI456
aI462
aI450
aI477
aI459
aI457
aI440
aI466
aI437
aI451
aI482
aI451
aI451
aI462
aI436
aI472
aI457
aI457
aI423
aI439
aI433
aI478
aI442
aI440
aI447
aI454
aI463
aI464
aI455
aI448
aI441
aI449
aI449
aI449
aI452
aI452
aI451
aI450
aI442
aI439
aI454
aI466
aI452
aI447
aI433
aI444
aI436
aI427
aI447
aI461
aI469
aI454
aI439
aI448
aI456
aI466
aI461
aI441
aI461
aI428
aI435
aI432
aI434
aI459
aI485
aI455
aI455
aI454
aI466
aI462
aI456
aI463
aI443
aI446
aI451
aI459
aI468
aI441
aI444
aI438
aI462
aI434
aI457
aI442
aI453
aI436
aI457
aI457
aI431
aI453
aI474
aI447
aI454
aI452
aI461
aI455
aI456
aI464
aI445
aI447
aI435
aI434
aI446
aI430
aI462
aI456
aI481
aI445
aI452
aI440
aI455
aI441
aI449
aI441
aI443
aI472
aI448
aI478
aI454
aI450
aI453
aI434
aI462
aI443
aI470
aI476
aI464
aI460
aI435
aI442
aI455
aI445
aI453
aI454
aI445
aI431
aI432
aI455
aI451
aI460
aI458
aI457
aI439
aI455
aI456
aI464
aI440
aI451
aI475
aI466
aI456
aI449
aI456
aI464
aI444
aI451
aI463
aI454
aI442
aI466
aI454
aI457
aI437
aI449
aI483
aI451
aI441
aI448
aI444
aI442
aI466
aI443
aI465
aI442
aI453
aI461
aI460
aI436
aI458
aI455
aI443
aI442
aI449
aI471
aI427
aI454
aI461
aI474
aI466
aI438
aI457
aI460
aI439
aI453
aI442
aI446
aI454
aI436
aI452
aI457
aI445
aI441
aI448
aI442
aI472
aI461
aI439
aI450
aI457
aI456
aI470
aI435
aI443
aI443
aI460
aI478
aI450
aI451
aI430
aI455
aI462
aI478
aI471
aI477
aI457
aI460
aI450
aI437
aI467
aI452
aI466
aI444
aI438
aI452
aI457
aI424
aI437
aI440
aI453
aI469
aI451
aI454
aI453
aI467
aI439
aI469
aI434
aI445
aI453
aI451
aI440
aI441
aI458
a.