(lp0
I456
aI443
aI453
aI437
aI450
aI450
aI475
aI436
aI456
aI461
aI441
aI458
aI433
aI427
aI434
aI439
aI448
aI449
aI468
aI473
aI458
aI455
aI446
aI467
aI445
aI463
aI467
aI466
aI454
aI464
aI448
aI482
aI441
aI466
aI434
aI451
aI423
aI443
aI431
aI454
aI457
aI441
aI461
aI443
aI447
aI451
aI451
aI445
aI462
aI442
aI449
aI456
aI483
aI481
aI462
aI463
aI454
aI472
aI433
aI461
aI455
aI449
aI466
aI474
aI467
aI460
aI451
aI436
aI461
aI446
aI435
aI438
aI445
aI462
aI433
aI441
aI443
aI453
aI454
aI472
aI426
aI458
aI441
aI459
aI458
aI459
aI435
aI470
aI464
aI449
aI451
aI442
aI443
aI457
aI455
aI441
aI464
aI449
aI468
aI467
aI467
aI438
aI455
aI459
aI458
aI461
aI443
aI455
aI453
aI455
aI449
aI450
aI466
aI476
aI479
aI453
aI465
aI478
aI437
aI452
aI444
aI444
aI444
aI426
aI453
aI457
aI451
aI435
aI437
aI451
aI445
aI462
aI447
aI450
aI440
aI455
aI447
aI454
aI457
aI460
aI466
aI445
aI463
aI438
aI441
aI452
aI450
aI447
aI464
aI456
aI449
aI464
aI468
aI446
aI462
aI460
aI451
aI439
aI459
aI440
aI430
aI445
aI474
aI452
aI434
aI441
aI462
aI453
aI457
aI456
aI446
aI451
aI449
aI447
aI444
aI469
aI454
aI444
aI465
aI435
aI473
aI456
aI464
aI445
aI441
aI460
aI441
aI432
aI454
aI446
aI445
aI428
aI467
aI441
aI467
aI464
aI448
aI452
aI476
aI456
aI473
aI441
aI458
aI446
aI439
aI464
aI452
aI456
aI450
aI444
aI455
aI449
aI463
aI444
aI430
aI439
aI449
aI456
aI453
aI450
aI445
aI444
aI458
aI458
aI434
aI434
aI447
aI450
aI444
aI467
aI470
aI453
aI445
aI478
aI454
aI455
aI446
aI464
aI442
aI449
aI450
aI455
aI466
aI442
aI464
aI443
aI460
aI460
aI450
aI446
aI458
aI456
aI449
aI442
aI447
aI487
aI467
aI447
aI445
aI458
aI450
aI455
aI467
aI447
aI447
aI440
aI429
aI453
aI458
aI458
aI442
aI456
aI450
aI438
aI447
aI416
aI453
aI470
aI451
aI452
aI455
aI451
aI449
aI435
aI457
aI467
aI444
aI445
aI439
aI447
aI456
aI463
aI436
aI430
aI453
aI465
aI434
aI448
aI465
aI457
aI453
aI432
aI475
aI424
aI450
aI456
aI459
aI450
aI435
aI454
aI458
aI430
aI434
aI469
aI433
aI444
aI445
aI455
aI456
aI457
aI419
aI457
aI462
aI471
aI477
aI445
aI433
aI442
aI439
aI459
aI457
aI442
aI465
aI437
aI445
aI476
aI445
aI464
aI441
aI449
aI443
aI449
aI429
aI456
aI466
aI453
aI445
aI450
aI466
aI457
aI480
aI462
aI462
aI460
aI435
aI432
aI444
aI435
aI479
aI448
aI455
aI449
aI448
aI459
aI448
aI453
aI445
aI441
aI462
aI440
aI459
aI451
aI436
aI439
aI437
aI459
aI461
aI437
aI451
aI443
aI468
aI476
aI462
aI472
aI444
aI446
aI451
aI447
aI436
aI455
aI448
aI445
aI452
aI445
aI442
aI462
aI477
aI442
aI449
aI435
aI454
aI447
aI454
aI456
aI447
aI440
aI448
aI447
aI430
aI456
aI447
aI447
aI443
aI451
aI450
aI450
aI434
aI468
aI434
aI462
aI457
aI454
aI449
aI465
aI457
aI452
aI446
aI445
aI423
aI445
aI448
aI462
aI469
aI443
aI463
aI449
aI439
aI447
aI459
aI435
aI443
aI453
aI453
aI458
aI455
aI458
aI452
aI449
aI478
aI432
aI437
aI439
aI460
aI438
aI448
aI441
aI449
aI444
aI446
aI463
aI447
aI432
aI446
aI468
aI451
aI458
aI442
aI449
aI465
aI434
aI472
aI464
aI452
aI452
aI434
aI439
aI448
aI455
aI446
aI451
aI431
aI439
aI484
aI447
aI474
aI460
aI460
aI442
aI435
aI444
aI438
aI446
aI463
aI475
aI468
aI442
aI436
aI440
aI460
aI472
aI438
aI469
aI444
aI472
aI429
aI454
aI457
aI474
aI456
aI446
aI445
aI455
aI472
aI438
aI446
aI479
aI466
aI461
aI445
aI423
aI461
aI456
aI452
aI451
aI439
aI474
aI437
aI446
aI458
aI458
aI451
aI454
aI472
aI461
aI459
aI455
aI447
aI437
aI465
aI481
aI449
aI458
aI446
aI437
aI445
aI446
aI441
aI445
aI482
aI459
aI460
aI434
aI460
aI455
aI450
aI448
aI440
aI442
aI455
aI464
aI440
aI465
aI451
aI473
aI453
aI451
aI449
aI460
aI456
aI492
aI450
aI452
aI453
aI447
aI458
aI441
aI411
aI442
aI439
aI458
aI456
aI429
aI434
aI440
aI465
aI448
aI450
aI449
aI456
aI451
aI443
aI434
aI460
aI467
aI445
aI458
aI473
aI435
aI458
aI446
aI449
aI459
aI465
aI484
aI443
aI457
aI446
aI468
aI450
aI449
aI444
aI472
aI455
aI466
aI462
aI450
aI456
aI450
aI458
aI449
aI447
aI461
aI459
aI449
aI460
aI455
aI446
aI463
aI437
aI446
aI436
aI453
aI457
aI467
aI442
aI445
aI475
aI451
aI439
aI464
aI452
aI436
aI462
aI462
aI465
aI480
aI450
aI441
aI466
aI444
aI474
aI474
aI451
aI451
aI440
aI463
aI450
aI464
aI472
aI456
aI455
aI459
aI461
aI446
aI458
aI462
aI445
aI469
aI435
aI463
aI465
aI471
aI439
aI445
aI449
aI451
aI444
aI452
aI470
aI444
aI438
aI432
aI439
aI445
aI463
aI437
aI462
aI456
aI438
aI451
aI452
aI443
aI444
aI455
aI445
aI434
aI473
aI464
aI461
aI429
aI452
aI460
aI461
aI473
aI438
aI471
aI475
aI464
aI450
aI455
aI480
aI469
aI458
aI446
aI442
aI448
aI450
aI468
aI467
aI440
aI453
aI469
aI446
aI459
aI470
aI450
aI447
aI428
aI464
aI465
aI434
aI460
aI444
aI452
aI438
aI452
aI449
aI439
aI449
aI437
aI451
aI452
aI453
aI446
aI449
aI454
aI469
aI461
aI440
aI460
aI466
aI465
aI448
aI467
aI444
aI441
aI474
aI449
aI455
aI448
aI480
aI438
aI416
aI442
aI432
aI450
aI465
aI469
aI462
aI461
aI455
aI443
aI430
aI452
aI456
aI461
aI441
aI419
aI475
aI455
aI441
aI446
aI453
aI471
aI459
aI458
aI444
aI441
aI447
aI450
aI442
aI454
aI443
aI475
aI469
aI476
aI452
aI447
aI440
aI463
aI453
aI472
aI452
aI455
aI445
aI463
aI468
aI441
aI462
aI451
aI446
aI441
aI457
aI435
aI448
aI461
aI450
aI448
aI444
aI463
aI441
aI463
aI411
aI442
aI466
aI431
aI439
aI434
aI463
aI461
aI437
aI460
aI447
aI465
aI446
aI462
aI474
aI424
aI454
aI447
aI469
aI445
aI421
aI437
aI462
aI454
aI458
aI435
aI466
aI437
aI441
aI461
aI460
aI462
aI461
aI442
aI461
aI455
aI450
aI445
aI440
aI457
aI458
aI445
aI462
aI448
aI442
aI442
aI447
aI463
aI451
aI459
aI446
aI458
aI452
aI447
aI461
aI457
aI459
aI457
aI440
aI455
aI457
aI472
aI454
aI451
aI436
aI450
aI428
aI456
aI451
aI451
aI438
aI451
aI462
aI467
aI427
aI440
aI454
aI445
aI467
aI450
aI454
aI441
aI463
aI440
aI454
aI467
aI429
aI448
aI460
aI458
aI477
aI455
aI434
aI437
aI460
aI461
aI455
aI467
aI440
aI456
aI436
aI466
aI458
aI457
aI429
aI454
aI454
aI428
aI444
aI431
aI439
aI471
aI436
aI479
aI448
aI465
aI451
aI449
aI445
aI451
aI441
aI441
aI456
aI423
aI465
aI441
aI451
aI461
aI452
aI471
aI451
aI430
aI458
aI439
aI445
aI427
aI445
aI450
aI435
aI454
aI454
aI443
aI456
aI445
aI444
aI450
aI484
aI428
aI444
aI446
aI463
aI460
aI465
aI457
aI457
aI453
aI466
aI457
aI465
aI450
aI455
aI441
aI464
aI445
aI470
aI459
aI449
aI443
aI450
aI442
aI463
aI473
aI454
aI457
aI456
aI456
aI451
aI451
a.