(lp0
I6
aI62
aI56
aI51
aI98
aI58
aI99
aI37
aI18
aI87
aI54
aI13
aI81
aI89
aI24
aI87
aI26
aI89
aI43
aI67
aI32
aI29
aI64
aI18
aI75
aI5
aI79
aI49
aI38
aI28
aI26
aI68
aI15
aI50
aI95
aI1
aI24
aI19
aI84
aI63
aI12
aI67
aI59
aI31
aI58
aI17
aI71
aI85
aI21
aI18
aI95
aI34
aI40
aI24
aI13
aI70
aI71
aI9
aI51
aI86
aI78
aI70
aI74
aI4
aI61
aI30
aI69
aI17
aI45
aI51
aI62
aI91
aI50
aI89
aI34
aI4
aI16
aI53
aI84
aI30
aI3
aI12
aI64
aI60
aI93
aI54
aI41
aI35
aI47
aI18
aI59
aI89
aI48
aI23
aI50
aI59
aI33
aI20
aI32
aI13
aI83
aI20
aI96
aI74
aI40
aI51
aI79
aI33
aI91
aI89
aI45
aI11
aI15
aI22
aI34
aI53
aI72
aI5
aI76
aI31
aI41
aI65
aI75
aI88
aI99
aI90
aI4
aI23
aI98
aI94
aI42
aI42
aI75
aI55
aI54
aI92
aI46
aI90
aI64
aI60
aI45
aI51
aI58
aI19
aI69
aI24
aI21
aI90
aI60
aI55
aI6
aI51
aI37
aI7
aI70
aI9
aI99
aI51
aI56
aI75
aI27
aI65
aI4
aI31
aI57
aI58
aI47
aI69
aI99
aI32
aI94
aI77
aI98
aI54
aI73
aI66
aI56
aI21
aI38
aI4
aI84
aI46
aI40
aI6
aI39
aI10
aI85
aI93
aI5
aI8
aI81
aI63
aI34
aI77
aI76
aI98
aI2
aI20
aI26
aI85
aI32
aI73
aI43
aI49
aI76
aI35
aI47
aI82
aI32
aI83
aI51
aI96
aI8
aI21
aI21
aI70
aI42
aI90
aI6
aI94
aI78
aI84
aI84
aI92
aI58
aI1
aI22
aI12
aI56
aI70
aI57
aI89
aI40
aI59
aI56
aI33
aI54
aI62
aI64
aI82
aI78
aI30
aI24
aI59
aI56
aI33
aI5
aI73
aI58
aI13
aI83
aI56
aI86
aI71
aI32
aI38
aI12
aI28
aI95
aI5
aI78
aI37
aI94
aI61
aI40
aI70
aI64
aI39
aI29
aI30
aI15
aI78
aI29
aI90
aI18
aI77
aI54
aI74
aI92
aI29
aI68
aI89
aI25
aI19
aI1
aI17
aI12
aI5
aI57
aI34
aI84
aI91
aI23
aI98
aI61
aI98
aI67
aI52
aI43
aI65
a.