(lp0
I445
aI435
aI455
aI446
aI455
aI436
aI457
aI463
aI459
aI440
aI442
aI450
aI456
aI446
aI448
aI449
aI464
aI451
aI467
aI441
aI462
aI445
aI457
aI459
aI444
aI460
aI430
aI431
aI469
aI452
aI441
aI449
aI471
aI466
aI477
aI470
aI470
aI467
aI482
aI449
aI462
aI450
aI445
aI452
aI449
aI440
aI435
aI463
aI451
aI447
aI454
aI445
aI456
aI459
aI448
aI458
aI436
aI465
aI447
aI458
aI471
aI473
aI483
aI472
aI445
aI442
aI452
aI471
aI430
aI461
aI455
aI447
aI445
aI456
aI451
aI460
aI435
aI435
aI458
aI471
aI452
aI457
aI445
aI454
aI465
aI436
aI442
aI471
aI429
aI461
aI461
aI436
aI471
aI431
aI458
aI466
aI457
aI464
aI462
aI463
aI456
aI431
aI451
aI470
aI447
aI469
aI481
aI451
aI451
aI451
aI456
aI459
aI436
aI457
aI451
aI460
aI437
aI443
aI445
aI442
aI442
aI479
aI466
aI458
aI454
aI471
aI464
aI458
aI457
aI471
aI461
aI468
aI468
aI464
aI471
aI473
aI450
aI469
aI480
aI443
aI450
aI450
aI435
aI462
aI468
aI459
aI469
aI468
aI459
aI452
aI446
aI485
aI454
aI457
aI451
aI442
aI452
aI465
aI448
aI484
aI469
aI432
aI444
aI456
aI462
aI503
aI440
aI425
aI455
aI442
aI452
aI440
aI444
aI452
aI452
aI461
aI466
aI435
aI440
aI457
aI450
aI460
aI454
aI488
aI427
aI469
aI435
aI455
aI453
aI449
aI462
aI464
aI449
aI447
aI453
aI453
aI484
aI442
aI466
aI451
aI466
aI459
aI436
aI439
aI449
aI428
aI470
aI462
aI467
aI440
aI456
aI453
aI461
aI463
aI440
aI457
aI468
aI459
aI440
aI466
aI469
aI456
aI442
aI451
aI464
aI454
aI440
aI467
aI473
aI452
aI445
aI425
aI465
aI445
aI460
aI443
aI455
aI453
aI450
aI449
aI437
aI449
aI439
aI454
aI468
aI457
aI464
aI441
aI455
aI436
aI460
aI449
aI445
aI439
aI451
aI450
aI453
aI434
aI454
aI445
aI456
aI451
aI451
aI460
aI472
aI472
aI449
aI454
aI446
aI454
aI426
aI452
aI453
aI457
aI447
aI457
aI445
aI426
aI454
aI441
aI445
aI455
aI463
aI452
aI468
aI461
aI476
aI443
aI429
aI463
aI450
aI448
aI442
aI456
aI465
aI463
aI448
aI432
aI435
aI446
a.