(lp0
I3
aI17
aI97
aI53
aI75
aI72
aI62
aI2
aI28
aI7
aI78
aI62
aI93
aI95
aI19
aI70
aI1
aI25
aI81
aI35
aI4
aI58
aI39
aI58
aI98
aI48
aI22
aI44
aI60
aI46
aI3
aI3
aI27
aI75
aI60
aI21
aI27
aI56
aI66
aI24
aI8
aI5
aI52
aI40
aI59
aI1
aI14
aI29
aI78
aI82
aI26
aI3
aI66
aI80
aI71
aI24
aI76
aI96
aI57
aI4
aI48
aI19
aI13
aI26
aI20
aI23
aI54
aI18
aI10
aI8
aI92
aI39
aI73
aI6
aI38
aI10
aI60
aI36
aI12
aI84
aI77
aI81
aI69
aI43
aI28
aI47
aI75
aI56
aI1
aI76
aI28
aI30
aI15
aI42
aI73
aI22
aI59
aI62
aI19
aI59
aI65
aI13
aI25
aI7
aI36
aI90
aI47
aI22
aI48
aI26
aI86
aI96
aI65
aI50
aI38
aI30
aI40
aI52
aI55
aI46
aI9
aI76
aI48
aI53
aI14
aI32
aI66
aI58
aI67
aI20
aI35
aI54
aI55
aI59
aI37
aI88
aI71
aI30
aI16
aI62
aI63
aI85
aI49
aI43
aI88
aI94
aI57
aI79
aI26
aI78
aI60
aI65
aI11
aI9
aI88
aI11
aI69
aI31
aI47
aI1
aI92
aI26
aI59
aI13
aI11
aI73
aI79
aI46
aI97
aI44
aI99
aI90
aI55
aI80
aI47
aI47
aI55
aI47
aI7
aI1
aI45
aI47
aI68
aI35
aI50
aI9
aI89
aI93
aI43
aI52
aI18
aI27
aI29
aI70
aI71
aI64
aI65
aI50
aI10
aI20
aI70
aI4
aI2
aI7
aI91
aI18
aI26
aI71
aI45
aI53
aI27
aI57
aI29
aI93
aI99
aI65
aI66
aI41
aI22
aI21
aI92
aI74
aI77
aI52
aI57
aI9
aI43
aI74
aI44
aI6
aI42
aI63
aI79
aI26
aI68
aI59
aI42
aI67
aI2
aI23
aI82
aI30
aI48
aI73
aI49
aI85
aI19
aI27
aI68
aI89
aI19
aI83
aI38
aI45
aI32
aI78
aI33
aI44
aI68
aI32
aI4
aI16
aI15
aI46
aI45
aI92
aI20
aI25
aI29
aI38
aI30
aI18
aI34
aI33
aI54
aI94
aI46
aI57
aI3
aI85
aI73
aI18
aI78
aI72
aI58
aI53
aI55
aI55
aI42
aI41
aI79
aI2
aI42
aI25
aI48
aI21
aI81
aI81
aI91
aI39
aI50
aI86
aI61
aI40
aI19
aI79
aI54
aI55
aI36
aI4
aI73
aI94
aI84
aI83
aI66
aI43
aI17
aI2
aI95
aI45
aI33
aI14
aI4
aI14
aI18
aI10
aI27
aI76
aI72
aI90
aI59
aI26
aI90
aI73
aI91
aI5
aI72
aI31
aI7
aI37
aI68
aI73
aI92
aI14
aI12
aI76
aI35
aI58
aI97
aI82
aI69
aI81
aI42
aI77
aI77
aI71
aI45
aI80
aI9
aI99
aI37
aI35
aI22
aI99
aI45
aI68
aI22
aI89
aI17
aI95
aI13
aI55
aI41
aI95
aI52
aI92
aI19
aI83
aI70
aI48
aI17
aI13
aI89
aI92
aI6
aI5
aI93
aI57
aI99
aI39
aI52
aI98
aI60
aI6
aI35
aI33
aI17
aI25
aI14
aI82
aI18
aI53
aI86
aI74
aI22
aI38
aI8
aI56
aI90
aI7
aI81
aI11
aI99
aI26
aI74
aI94
aI38
aI19
aI1
aI78
aI6
aI22
aI91
aI48
aI51
aI87
aI2
aI77
aI11
aI98
aI69
aI52
aI44
aI43
aI1
aI35
aI17
aI21
aI84
aI95
aI29
aI89
aI17
aI98
aI35
aI32
aI63
aI78
aI65
aI55
aI68
aI72
aI92
aI38
aI15
aI16
aI59
aI79
aI96
aI84
aI94
aI49
aI1
aI87
aI96
aI85
aI36
aI60
aI21
aI48
aI12
aI10
aI37
aI1
aI4
aI70
aI37
aI72
aI36
aI50
aI81
aI65
aI31
aI32
aI69
aI91
aI1
aI96
aI19
aI27
aI9
aI11
aI90
aI99
aI10
aI88
aI50
aI27
aI67
aI16
a.